; Listing generated by Microsoft (R) Optimizing Compiler Version 19.30.30423.0 

	TITLE	C:\Users\Zmrbak\source\repos\RE306\RE306\RE306.obj
	.686P
	.XMM
	include listing.inc
	.model	flat

INCLUDELIB LIBCMT
INCLUDELIB OLDNAMES

CONST	SEGMENT
$SG34056 DB	'Hello', 00H
?_Fake_alloc@std@@3U_Fake_allocator@1@B	ORG $+1		; std::_Fake_alloc
	ORG $+1
$SG34057 DB	'World', 00H
	ORG $+2
$SG34062 DB	'%s', 00H
	ORG $+1
$SG34076 DB	'Hello world', 00H
$SG34077 DB	',zmrbak', 00H
CONST	ENDS
PUBLIC	??2@YAPAXIPAX@Z					; operator new
PUBLIC	___local_stdio_printf_options
PUBLIC	__vfprintf_l
PUBLIC	_printf
PUBLIC	??0exception@std@@QAE@QBDH@Z			; std::exception::exception
PUBLIC	??0exception@std@@QAE@ABV01@@Z			; std::exception::exception
PUBLIC	??1exception@std@@UAE@XZ			; std::exception::~exception
PUBLIC	?what@exception@std@@UBEPBDXZ			; std::exception::what
PUBLIC	??_Gexception@std@@UAEPAXI@Z			; std::exception::`scalar deleting destructor'
PUBLIC	??0bad_alloc@std@@AAE@QBD@Z			; std::bad_alloc::bad_alloc
PUBLIC	??1bad_alloc@std@@UAE@XZ			; std::bad_alloc::~bad_alloc
PUBLIC	??0bad_alloc@std@@QAE@ABV01@@Z			; std::bad_alloc::bad_alloc
PUBLIC	??_Gbad_alloc@std@@UAEPAXI@Z			; std::bad_alloc::`scalar deleting destructor'
PUBLIC	??0bad_array_new_length@std@@QAE@XZ		; std::bad_array_new_length::bad_array_new_length
PUBLIC	??1bad_array_new_length@std@@UAE@XZ		; std::bad_array_new_length::~bad_array_new_length
PUBLIC	??0bad_array_new_length@std@@QAE@ABV01@@Z	; std::bad_array_new_length::bad_array_new_length
PUBLIC	??_Gbad_array_new_length@std@@UAEPAXI@Z		; std::bad_array_new_length::`scalar deleting destructor'
PUBLIC	?_Throw_bad_array_new_length@std@@YAXXZ		; std::_Throw_bad_array_new_length
PUBLIC	?max@?$numeric_limits@H@std@@SAHXZ		; std::numeric_limits<int>::max
PUBLIC	?_Allocate@_Default_allocate_traits@std@@SAPAXI@Z ; std::_Default_allocate_traits::_Allocate
PUBLIC	?_Adjust_manually_vector_aligned@std@@YAXAAPAXAAI@Z ; std::_Adjust_manually_vector_aligned
PUBLIC	??$_Convert_size@I@std@@YAII@Z			; std::_Convert_size<unsigned int>
PUBLIC	?_Orphan_all@_Container_base0@std@@QAEXXZ	; std::_Container_base0::_Orphan_all
PUBLIC	?_Swap_proxy_and_iterators@_Container_base0@std@@QAEXAAU12@@Z ; std::_Container_base0::_Swap_proxy_and_iterators
PUBLIC	?_Alloc_proxy@_Container_base0@std@@QAEXABU_Fake_allocator@2@@Z ; std::_Container_base0::_Alloc_proxy
PUBLIC	??0_Fake_proxy_ptr_impl@std@@QAE@ABU_Fake_allocator@1@ABU_Container_base0@1@@Z ; std::_Fake_proxy_ptr_impl::_Fake_proxy_ptr_impl
PUBLIC	?_Release@_Fake_proxy_ptr_impl@std@@QAEXXZ	; std::_Fake_proxy_ptr_impl::_Release
PUBLIC	?copy@?$_Char_traits@DH@std@@SAPADQADQBDI@Z	; std::_Char_traits<char,int>::copy
PUBLIC	?move@?$_Char_traits@DH@std@@SAPADQADQBDI@Z	; std::_Char_traits<char,int>::move
PUBLIC	?length@?$_Narrow_char_traits@DH@std@@SAIQBD@Z	; std::_Narrow_char_traits<char,int>::length
PUBLIC	?assign@?$_Narrow_char_traits@DH@std@@SAXAADABD@Z ; std::_Narrow_char_traits<char,int>::assign
PUBLIC	?_Xlen_string@std@@YAXXZ			; std::_Xlen_string
PUBLIC	??0?$allocator@D@std@@QAE@XZ			; std::allocator<char>::allocator<char>
PUBLIC	?deallocate@?$allocator@D@std@@QAEXQADI@Z	; std::allocator<char>::deallocate
PUBLIC	?allocate@?$allocator@D@std@@QAEPADI@Z		; std::allocator<char>::allocate
PUBLIC	?max_size@?$_Default_allocator_traits@V?$allocator@D@std@@@std@@SAIABV?$allocator@D@2@@Z ; std::_Default_allocator_traits<std::allocator<char> >::max_size
PUBLIC	?select_on_container_copy_construction@?$_Default_allocator_traits@V?$allocator@D@std@@@std@@SA?AV?$allocator@D@2@ABV32@@Z ; std::_Default_allocator_traits<std::allocator<char> >::select_on_container_copy_construction
PUBLIC	??0?$_String_val@U?$_Simple_types@D@std@@@std@@QAE@XZ ; std::_String_val<std::_Simple_types<char> >::_String_val<std::_Simple_types<char> >
PUBLIC	?_Myptr@?$_String_val@U?$_Simple_types@D@std@@@std@@QAEPADXZ ; std::_String_val<std::_Simple_types<char> >::_Myptr
PUBLIC	?_Myptr@?$_String_val@U?$_Simple_types@D@std@@@std@@QBEPBDXZ ; std::_String_val<std::_Simple_types<char> >::_Myptr
PUBLIC	?_Large_string_engaged@?$_String_val@U?$_Simple_types@D@std@@@std@@QBE_NXZ ; std::_String_val<std::_Simple_types<char> >::_Large_string_engaged
PUBLIC	??0_Bxty@?$_String_val@U?$_Simple_types@D@std@@@std@@QAE@XZ ; std::_String_val<std::_Simple_types<char> >::_Bxty::_Bxty
PUBLIC	??1_Bxty@?$_String_val@U?$_Simple_types@D@std@@@std@@QAE@XZ ; std::_String_val<std::_Simple_types<char> >::_Bxty::~_Bxty
PUBLIC	??1?$_String_val@U?$_Simple_types@D@std@@@std@@QAE@XZ ; std::_String_val<std::_Simple_types<char> >::~_String_val<std::_Simple_types<char> >
PUBLIC	??0?$basic_string@DU?$char_traits@D@std@@V?$allocator@D@2@@std@@QAE@QBD@Z ; std::basic_string<char,std::char_traits<char>,std::allocator<char> >::basic_string<char,std::char_traits<char>,std::allocator<char> >
PUBLIC	??0?$basic_string@DU?$char_traits@D@std@@V?$allocator@D@2@@std@@QAE@$$QAV01@@Z ; std::basic_string<char,std::char_traits<char>,std::allocator<char> >::basic_string<char,std::char_traits<char>,std::allocator<char> >
PUBLIC	??0?$basic_string@DU?$char_traits@D@std@@V?$allocator@D@2@@std@@QAE@U_String_constructor_concat_tag@1@ABV01@QBDI2I@Z ; std::basic_string<char,std::char_traits<char>,std::allocator<char> >::basic_string<char,std::char_traits<char>,std::allocator<char> >
PUBLIC	?_Memcpy_val_from@?$basic_string@DU?$char_traits@D@std@@V?$allocator@D@2@@std@@AAEXABV12@@Z ; std::basic_string<char,std::char_traits<char>,std::allocator<char> >::_Memcpy_val_from
PUBLIC	?_Take_contents@?$basic_string@DU?$char_traits@D@std@@V?$allocator@D@2@@std@@AAEXAAV12@@Z ; std::basic_string<char,std::char_traits<char>,std::allocator<char> >::_Take_contents
PUBLIC	??1?$basic_string@DU?$char_traits@D@std@@V?$allocator@D@2@@std@@QAE@XZ ; std::basic_string<char,std::char_traits<char>,std::allocator<char> >::~basic_string<char,std::char_traits<char>,std::allocator<char> >
PUBLIC	?assign@?$basic_string@DU?$char_traits@D@std@@V?$allocator@D@2@@std@@QAEAAV12@QBDI@Z ; std::basic_string<char,std::char_traits<char>,std::allocator<char> >::assign
PUBLIC	?assign@?$basic_string@DU?$char_traits@D@std@@V?$allocator@D@2@@std@@QAEAAV12@QBD@Z ; std::basic_string<char,std::char_traits<char>,std::allocator<char> >::assign
PUBLIC	?c_str@?$basic_string@DU?$char_traits@D@std@@V?$allocator@D@2@@std@@QBEPBDXZ ; std::basic_string<char,std::char_traits<char>,std::allocator<char> >::c_str
PUBLIC	?size@?$basic_string@DU?$char_traits@D@std@@V?$allocator@D@2@@std@@QBEIXZ ; std::basic_string<char,std::char_traits<char>,std::allocator<char> >::size
PUBLIC	?max_size@?$basic_string@DU?$char_traits@D@std@@V?$allocator@D@2@@std@@QBEIXZ ; std::basic_string<char,std::char_traits<char>,std::allocator<char> >::max_size
PUBLIC	?_Calculate_growth@?$basic_string@DU?$char_traits@D@std@@V?$allocator@D@2@@std@@CAIIII@Z ; std::basic_string<char,std::char_traits<char>,std::allocator<char> >::_Calculate_growth
PUBLIC	?_Calculate_growth@?$basic_string@DU?$char_traits@D@std@@V?$allocator@D@2@@std@@ABEII@Z ; std::basic_string<char,std::char_traits<char>,std::allocator<char> >::_Calculate_growth
PUBLIC	?_Tidy_init@?$basic_string@DU?$char_traits@D@std@@V?$allocator@D@2@@std@@AAEXXZ ; std::basic_string<char,std::char_traits<char>,std::allocator<char> >::_Tidy_init
PUBLIC	?_Tidy_deallocate@?$basic_string@DU?$char_traits@D@std@@V?$allocator@D@2@@std@@AAEXXZ ; std::basic_string<char,std::char_traits<char>,std::allocator<char> >::_Tidy_deallocate
PUBLIC	?_Swap_proxy_and_iterators@?$basic_string@DU?$char_traits@D@std@@V?$allocator@D@2@@std@@AAEXAAV12@@Z ; std::basic_string<char,std::char_traits<char>,std::allocator<char> >::_Swap_proxy_and_iterators
PUBLIC	?_Getal@?$basic_string@DU?$char_traits@D@std@@V?$allocator@D@2@@std@@AAEAAV?$allocator@D@2@XZ ; std::basic_string<char,std::char_traits<char>,std::allocator<char> >::_Getal
PUBLIC	?_Getal@?$basic_string@DU?$char_traits@D@std@@V?$allocator@D@2@@std@@ABEABV?$allocator@D@2@XZ ; std::basic_string<char,std::char_traits<char>,std::allocator<char> >::_Getal
PUBLIC	?_Get_first@?$_Compressed_pair@V?$allocator@D@std@@V?$_String_val@U?$_Simple_types@D@std@@@2@$00@std@@QAEAAV?$allocator@D@2@XZ ; std::_Compressed_pair<std::allocator<char>,std::_String_val<std::_Simple_types<char> >,1>::_Get_first
PUBLIC	?_Get_first@?$_Compressed_pair@V?$allocator@D@std@@V?$_String_val@U?$_Simple_types@D@std@@@2@$00@std@@QBEABV?$allocator@D@2@XZ ; std::_Compressed_pair<std::allocator<char>,std::_String_val<std::_Simple_types<char> >,1>::_Get_first
PUBLIC	??1?$_Compressed_pair@V?$allocator@D@std@@V?$_String_val@U?$_Simple_types@D@std@@@2@$00@std@@QAE@XZ ; std::_Compressed_pair<std::allocator<char>,std::_String_val<std::_Simple_types<char> >,1>::~_Compressed_pair<std::allocator<char>,std::_String_val<std::_Simple_types<char> >,1>
PUBLIC	?stringAdd@@YA?AV?$basic_string@DU?$char_traits@D@std@@V?$allocator@D@2@@std@@XZ ; stringAdd
PUBLIC	??$?HDU?$char_traits@D@std@@V?$allocator@D@1@@std@@YA?AV?$basic_string@DU?$char_traits@D@std@@V?$allocator@D@2@@0@ABV10@0@Z ; std::operator+<char,std::char_traits<char>,std::allocator<char> >
PUBLIC	_main
PUBLIC	?main1@@YAHXZ					; main1
PUBLIC	??$move@AAV?$allocator@D@std@@@std@@YA$$QAV?$allocator@D@0@AAV10@@Z ; std::move<std::allocator<char> &>
PUBLIC	??$?0V?$allocator@D@std@@$$V@?$_Compressed_pair@V?$allocator@D@std@@V?$_String_val@U?$_Simple_types@D@std@@@2@$00@std@@QAE@U_One_then_variadic_args_t@1@$$QAV?$allocator@D@1@@Z ; std::_Compressed_pair<std::allocator<char>,std::_String_val<std::_Simple_types<char> >,1>::_Compressed_pair<std::allocator<char>,std::_String_val<std::_Simple_types<char> >,1><std::allocator<char> >
PUBLIC	??$?0$$V@?$_Compressed_pair@V?$allocator@D@std@@V?$_String_val@U?$_Simple_types@D@std@@@2@$00@std@@QAE@U_Zero_then_variadic_args_t@1@@Z ; std::_Compressed_pair<std::allocator<char>,std::_String_val<std::_Simple_types<char> >,1>::_Compressed_pair<std::allocator<char>,std::_String_val<std::_Simple_types<char> >,1><>
PUBLIC	??$_Destroy_in_place@PAD@std@@YAXAAPAD@Z	; std::_Destroy_in_place<char *>
PUBLIC	??R<lambda_9366063389c5f42a00a5088cf24e69de>@@QBE@QADIQBD@Z ; <lambda_9366063389c5f42a00a5088cf24e69de>::operator()
PUBLIC	??$_Reallocate_for@V<lambda_9366063389c5f42a00a5088cf24e69de>@@PBD@?$basic_string@DU?$char_traits@D@std@@V?$allocator@D@2@@std@@AAEAAV01@IV<lambda_9366063389c5f42a00a5088cf24e69de>@@PBD@Z ; std::basic_string<char,std::char_traits<char>,std::allocator<char> >::_Reallocate_for<<lambda_9366063389c5f42a00a5088cf24e69de>,char const *>
PUBLIC	??$min@I@std@@YAABIABI0@Z			; std::min<unsigned int>
PUBLIC	??$_Construct_in_place@PADABQAD@std@@YAXAAPADABQAD@Z ; std::_Construct_in_place<char *,char * const &>
PUBLIC	??$_Unfancy@D@std@@YAPADPAD@Z			; std::_Unfancy<char>
PUBLIC	??$_Construct_in_place@PADAAPAD@std@@YAXAAPAD0@Z ; std::_Construct_in_place<char *,char * &>
PUBLIC	??$max@I@std@@YAABIABI0@Z			; std::max<unsigned int>
PUBLIC	??$_Deallocate@$07$0A@@std@@YAXPAXI@Z		; std::_Deallocate<8,0>
PUBLIC	??$addressof@V?$_String_val@U?$_Simple_types@D@std@@@std@@@std@@YAPAV?$_String_val@U?$_Simple_types@D@std@@@0@AAV10@@Z ; std::addressof<std::_String_val<std::_Simple_types<char> > >
PUBLIC	??$addressof@$$CBV?$_String_val@U?$_Simple_types@D@std@@@std@@@std@@YAPBV?$_String_val@U?$_Simple_types@D@std@@@0@ABV10@@Z ; std::addressof<std::_String_val<std::_Simple_types<char> > const >
PUBLIC	??$_Get_size_of_n@$00@std@@YAII@Z		; std::_Get_size_of_n<1>
PUBLIC	??$_Allocate@$07U_Default_allocate_traits@std@@$0A@@std@@YAPAXI@Z ; std::_Allocate<8,std::_Default_allocate_traits,0>
PUBLIC	??$forward@V?$allocator@D@std@@@std@@YA$$QAV?$allocator@D@0@AAV10@@Z ; std::forward<std::allocator<char> >
PUBLIC	??$addressof@PAD@std@@YAPAPADAAPAD@Z		; std::addressof<char *>
PUBLIC	??$_Voidify_iter@PAPAD@std@@YAPAXPAPAD@Z	; std::_Voidify_iter<char * *>
PUBLIC	??$forward@ABQAD@std@@YAABQADABQAD@Z		; std::forward<char * const &>
PUBLIC	??$forward@AAPAD@std@@YAAAPADAAPAD@Z		; std::forward<char * &>
PUBLIC	??$_Allocate_manually_vector_aligned@U_Default_allocate_traits@std@@@std@@YAPAXI@Z ; std::_Allocate_manually_vector_aligned<std::_Default_allocate_traits>
PUBLIC	?_OptionsStorage@?1??__local_stdio_printf_options@@9@4_KA ; `__local_stdio_printf_options'::`2'::_OptionsStorage
PUBLIC	??_7exception@std@@6B@				; std::exception::`vftable'
PUBLIC	??_C@_0BC@EOODALEL@Unknown?5exception@		; `string'
PUBLIC	??_7bad_alloc@std@@6B@				; std::bad_alloc::`vftable'
PUBLIC	??_7bad_array_new_length@std@@6B@		; std::bad_array_new_length::`vftable'
PUBLIC	??_C@_0BF@KINCDENJ@bad?5array?5new?5length@	; `string'
PUBLIC	__TI3?AVbad_array_new_length@std@@
PUBLIC	__CTA3?AVbad_array_new_length@std@@
PUBLIC	??_R0?AVbad_array_new_length@std@@@8		; std::bad_array_new_length `RTTI Type Descriptor'
PUBLIC	__CT??_R0?AVbad_array_new_length@std@@@8??0bad_array_new_length@std@@QAE@ABV01@@Z12
PUBLIC	??_R0?AVbad_alloc@std@@@8			; std::bad_alloc `RTTI Type Descriptor'
PUBLIC	__CT??_R0?AVbad_alloc@std@@@8??0bad_alloc@std@@QAE@ABV01@@Z12
PUBLIC	??_R0?AVexception@std@@@8			; std::exception `RTTI Type Descriptor'
PUBLIC	__CT??_R0?AVexception@std@@@8??0exception@std@@QAE@ABV01@@Z12
PUBLIC	??_C@_0BA@JFNIOLAK@string?5too?5long@		; `string'
PUBLIC	?_BUF_SIZE@?$basic_string@DU?$char_traits@D@std@@V?$allocator@D@2@@std@@0IB ; std::basic_string<char,std::char_traits<char>,std::allocator<char> >::_BUF_SIZE
PUBLIC	??_R4exception@std@@6B@				; std::exception::`RTTI Complete Object Locator'
PUBLIC	??_R3exception@std@@8				; std::exception::`RTTI Class Hierarchy Descriptor'
PUBLIC	??_R2exception@std@@8				; std::exception::`RTTI Base Class Array'
PUBLIC	??_R1A@?0A@EA@exception@std@@8			; std::exception::`RTTI Base Class Descriptor at (0,-1,0,64)'
PUBLIC	??_R4bad_alloc@std@@6B@				; std::bad_alloc::`RTTI Complete Object Locator'
PUBLIC	??_R3bad_alloc@std@@8				; std::bad_alloc::`RTTI Class Hierarchy Descriptor'
PUBLIC	??_R2bad_alloc@std@@8				; std::bad_alloc::`RTTI Base Class Array'
PUBLIC	??_R1A@?0A@EA@bad_alloc@std@@8			; std::bad_alloc::`RTTI Base Class Descriptor at (0,-1,0,64)'
PUBLIC	??_R4bad_array_new_length@std@@6B@		; std::bad_array_new_length::`RTTI Complete Object Locator'
PUBLIC	??_R3bad_array_new_length@std@@8		; std::bad_array_new_length::`RTTI Class Hierarchy Descriptor'
PUBLIC	??_R2bad_array_new_length@std@@8		; std::bad_array_new_length::`RTTI Base Class Array'
PUBLIC	??_R1A@?0A@EA@bad_array_new_length@std@@8	; std::bad_array_new_length::`RTTI Base Class Descriptor at (0,-1,0,64)'
EXTRN	??2@YAPAXI@Z:PROC				; operator new
EXTRN	??3@YAXPAXI@Z:PROC				; operator delete
EXTRN	__invalid_parameter_noinfo_noreturn:PROC
EXTRN	___acrt_iob_func:PROC
EXTRN	___stdio_common_vfprintf:PROC
EXTRN	_memcpy:PROC
EXTRN	_memmove:PROC
EXTRN	_strlen:PROC
EXTRN	?_Xlength_error@std@@YAXPBD@Z:PROC		; std::_Xlength_error
EXTRN	___std_exception_copy:PROC
EXTRN	___std_exception_destroy:PROC
EXTRN	??_Eexception@std@@UAEPAXI@Z:PROC		; std::exception::`vector deleting destructor'
EXTRN	??_Ebad_alloc@std@@UAEPAXI@Z:PROC		; std::bad_alloc::`vector deleting destructor'
EXTRN	??_Ebad_array_new_length@std@@UAEPAXI@Z:PROC	; std::bad_array_new_length::`vector deleting destructor'
EXTRN	__CxxThrowException@8:PROC
EXTRN	??_7type_info@@6B@:QWORD			; type_info::`vftable'
;	COMDAT ?_OptionsStorage@?1??__local_stdio_printf_options@@9@4_KA
_BSS	SEGMENT
?_OptionsStorage@?1??__local_stdio_printf_options@@9@4_KA DQ 01H DUP (?) ; `__local_stdio_printf_options'::`2'::_OptionsStorage
_BSS	ENDS
;	COMDAT ??_R1A@?0A@EA@bad_array_new_length@std@@8
rdata$r	SEGMENT
??_R1A@?0A@EA@bad_array_new_length@std@@8 DD FLAT:??_R0?AVbad_array_new_length@std@@@8 ; std::bad_array_new_length::`RTTI Base Class Descriptor at (0,-1,0,64)'
	DD	02H
	DD	00H
	DD	0ffffffffH
	DD	00H
	DD	040H
	DD	FLAT:??_R3bad_array_new_length@std@@8
rdata$r	ENDS
;	COMDAT ??_R2bad_array_new_length@std@@8
rdata$r	SEGMENT
??_R2bad_array_new_length@std@@8 DD FLAT:??_R1A@?0A@EA@bad_array_new_length@std@@8 ; std::bad_array_new_length::`RTTI Base Class Array'
	DD	FLAT:??_R1A@?0A@EA@bad_alloc@std@@8
	DD	FLAT:??_R1A@?0A@EA@exception@std@@8
rdata$r	ENDS
;	COMDAT ??_R3bad_array_new_length@std@@8
rdata$r	SEGMENT
??_R3bad_array_new_length@std@@8 DD 00H			; std::bad_array_new_length::`RTTI Class Hierarchy Descriptor'
	DD	00H
	DD	03H
	DD	FLAT:??_R2bad_array_new_length@std@@8
rdata$r	ENDS
;	COMDAT ??_R4bad_array_new_length@std@@6B@
rdata$r	SEGMENT
??_R4bad_array_new_length@std@@6B@ DD 00H		; std::bad_array_new_length::`RTTI Complete Object Locator'
	DD	00H
	DD	00H
	DD	FLAT:??_R0?AVbad_array_new_length@std@@@8
	DD	FLAT:??_R3bad_array_new_length@std@@8
rdata$r	ENDS
;	COMDAT ??_R1A@?0A@EA@bad_alloc@std@@8
rdata$r	SEGMENT
??_R1A@?0A@EA@bad_alloc@std@@8 DD FLAT:??_R0?AVbad_alloc@std@@@8 ; std::bad_alloc::`RTTI Base Class Descriptor at (0,-1,0,64)'
	DD	01H
	DD	00H
	DD	0ffffffffH
	DD	00H
	DD	040H
	DD	FLAT:??_R3bad_alloc@std@@8
rdata$r	ENDS
;	COMDAT ??_R2bad_alloc@std@@8
rdata$r	SEGMENT
??_R2bad_alloc@std@@8 DD FLAT:??_R1A@?0A@EA@bad_alloc@std@@8 ; std::bad_alloc::`RTTI Base Class Array'
	DD	FLAT:??_R1A@?0A@EA@exception@std@@8
rdata$r	ENDS
;	COMDAT ??_R3bad_alloc@std@@8
rdata$r	SEGMENT
??_R3bad_alloc@std@@8 DD 00H				; std::bad_alloc::`RTTI Class Hierarchy Descriptor'
	DD	00H
	DD	02H
	DD	FLAT:??_R2bad_alloc@std@@8
rdata$r	ENDS
;	COMDAT ??_R4bad_alloc@std@@6B@
rdata$r	SEGMENT
??_R4bad_alloc@std@@6B@ DD 00H				; std::bad_alloc::`RTTI Complete Object Locator'
	DD	00H
	DD	00H
	DD	FLAT:??_R0?AVbad_alloc@std@@@8
	DD	FLAT:??_R3bad_alloc@std@@8
rdata$r	ENDS
;	COMDAT ??_R1A@?0A@EA@exception@std@@8
rdata$r	SEGMENT
??_R1A@?0A@EA@exception@std@@8 DD FLAT:??_R0?AVexception@std@@@8 ; std::exception::`RTTI Base Class Descriptor at (0,-1,0,64)'
	DD	00H
	DD	00H
	DD	0ffffffffH
	DD	00H
	DD	040H
	DD	FLAT:??_R3exception@std@@8
rdata$r	ENDS
;	COMDAT ??_R2exception@std@@8
rdata$r	SEGMENT
??_R2exception@std@@8 DD FLAT:??_R1A@?0A@EA@exception@std@@8 ; std::exception::`RTTI Base Class Array'
rdata$r	ENDS
;	COMDAT ??_R3exception@std@@8
rdata$r	SEGMENT
??_R3exception@std@@8 DD 00H				; std::exception::`RTTI Class Hierarchy Descriptor'
	DD	00H
	DD	01H
	DD	FLAT:??_R2exception@std@@8
rdata$r	ENDS
;	COMDAT ??_R4exception@std@@6B@
rdata$r	SEGMENT
??_R4exception@std@@6B@ DD 00H				; std::exception::`RTTI Complete Object Locator'
	DD	00H
	DD	00H
	DD	FLAT:??_R0?AVexception@std@@@8
	DD	FLAT:??_R3exception@std@@8
rdata$r	ENDS
;	COMDAT ?_BUF_SIZE@?$basic_string@DU?$char_traits@D@std@@V?$allocator@D@2@@std@@0IB
CONST	SEGMENT
?_BUF_SIZE@?$basic_string@DU?$char_traits@D@std@@V?$allocator@D@2@@std@@0IB DD 010H ; std::basic_string<char,std::char_traits<char>,std::allocator<char> >::_BUF_SIZE
CONST	ENDS
;	COMDAT ??_C@_0BA@JFNIOLAK@string?5too?5long@
CONST	SEGMENT
??_C@_0BA@JFNIOLAK@string?5too?5long@ DB 'string too long', 00H ; `string'
CONST	ENDS
;	COMDAT __CT??_R0?AVexception@std@@@8??0exception@std@@QAE@ABV01@@Z12
xdata$x	SEGMENT
__CT??_R0?AVexception@std@@@8??0exception@std@@QAE@ABV01@@Z12 DD 00H
	DD	FLAT:??_R0?AVexception@std@@@8
	DD	00H
	DD	0ffffffffH
	ORG $+4
	DD	0cH
	DD	FLAT:??0exception@std@@QAE@ABV01@@Z
xdata$x	ENDS
;	COMDAT ??_R0?AVexception@std@@@8
data$r	SEGMENT
??_R0?AVexception@std@@@8 DD FLAT:??_7type_info@@6B@	; std::exception `RTTI Type Descriptor'
	DD	00H
	DB	'.?AVexception@std@@', 00H
data$r	ENDS
;	COMDAT __CT??_R0?AVbad_alloc@std@@@8??0bad_alloc@std@@QAE@ABV01@@Z12
xdata$x	SEGMENT
__CT??_R0?AVbad_alloc@std@@@8??0bad_alloc@std@@QAE@ABV01@@Z12 DD 010H
	DD	FLAT:??_R0?AVbad_alloc@std@@@8
	DD	00H
	DD	0ffffffffH
	ORG $+4
	DD	0cH
	DD	FLAT:??0bad_alloc@std@@QAE@ABV01@@Z
xdata$x	ENDS
;	COMDAT ??_R0?AVbad_alloc@std@@@8
data$r	SEGMENT
??_R0?AVbad_alloc@std@@@8 DD FLAT:??_7type_info@@6B@	; std::bad_alloc `RTTI Type Descriptor'
	DD	00H
	DB	'.?AVbad_alloc@std@@', 00H
data$r	ENDS
;	COMDAT __CT??_R0?AVbad_array_new_length@std@@@8??0bad_array_new_length@std@@QAE@ABV01@@Z12
xdata$x	SEGMENT
__CT??_R0?AVbad_array_new_length@std@@@8??0bad_array_new_length@std@@QAE@ABV01@@Z12 DD 00H
	DD	FLAT:??_R0?AVbad_array_new_length@std@@@8
	DD	00H
	DD	0ffffffffH
	ORG $+4
	DD	0cH
	DD	FLAT:??0bad_array_new_length@std@@QAE@ABV01@@Z
xdata$x	ENDS
;	COMDAT ??_R0?AVbad_array_new_length@std@@@8
data$r	SEGMENT
??_R0?AVbad_array_new_length@std@@@8 DD FLAT:??_7type_info@@6B@ ; std::bad_array_new_length `RTTI Type Descriptor'
	DD	00H
	DB	'.?AVbad_array_new_length@std@@', 00H
data$r	ENDS
;	COMDAT __CTA3?AVbad_array_new_length@std@@
xdata$x	SEGMENT
__CTA3?AVbad_array_new_length@std@@ DD 03H
	DD	FLAT:__CT??_R0?AVbad_array_new_length@std@@@8??0bad_array_new_length@std@@QAE@ABV01@@Z12
	DD	FLAT:__CT??_R0?AVbad_alloc@std@@@8??0bad_alloc@std@@QAE@ABV01@@Z12
	DD	FLAT:__CT??_R0?AVexception@std@@@8??0exception@std@@QAE@ABV01@@Z12
xdata$x	ENDS
;	COMDAT __TI3?AVbad_array_new_length@std@@
xdata$x	SEGMENT
__TI3?AVbad_array_new_length@std@@ DD 00H
	DD	FLAT:??1bad_array_new_length@std@@UAE@XZ
	DD	00H
	DD	FLAT:__CTA3?AVbad_array_new_length@std@@
xdata$x	ENDS
;	COMDAT ??_C@_0BF@KINCDENJ@bad?5array?5new?5length@
CONST	SEGMENT
??_C@_0BF@KINCDENJ@bad?5array?5new?5length@ DB 'bad array new length', 00H ; `string'
CONST	ENDS
;	COMDAT ??_7bad_array_new_length@std@@6B@
CONST	SEGMENT
??_7bad_array_new_length@std@@6B@ DD FLAT:??_R4bad_array_new_length@std@@6B@ ; std::bad_array_new_length::`vftable'
	DD	FLAT:??_Ebad_array_new_length@std@@UAEPAXI@Z
	DD	FLAT:?what@exception@std@@UBEPBDXZ
CONST	ENDS
;	COMDAT ??_7bad_alloc@std@@6B@
CONST	SEGMENT
??_7bad_alloc@std@@6B@ DD FLAT:??_R4bad_alloc@std@@6B@	; std::bad_alloc::`vftable'
	DD	FLAT:??_Ebad_alloc@std@@UAEPAXI@Z
	DD	FLAT:?what@exception@std@@UBEPBDXZ
CONST	ENDS
;	COMDAT ??_C@_0BC@EOODALEL@Unknown?5exception@
CONST	SEGMENT
??_C@_0BC@EOODALEL@Unknown?5exception@ DB 'Unknown exception', 00H ; `string'
CONST	ENDS
;	COMDAT ??_7exception@std@@6B@
CONST	SEGMENT
??_7exception@std@@6B@ DD FLAT:??_R4exception@std@@6B@	; std::exception::`vftable'
	DD	FLAT:??_Eexception@std@@UAEPAXI@Z
	DD	FLAT:?what@exception@std@@UBEPBDXZ
CONST	ENDS
; Function compile flags: /Odtp
;	COMDAT ??$_Allocate_manually_vector_aligned@U_Default_allocate_traits@std@@@std@@YAPAXI@Z
_TEXT	SEGMENT
__Ptr$ = -12						; size = 4
__Block_size$ = -8					; size = 4
__Ptr_container$ = -4					; size = 4
__Bytes$ = 8						; size = 4
??$_Allocate_manually_vector_aligned@U_Default_allocate_traits@std@@@std@@YAPAXI@Z PROC ; std::_Allocate_manually_vector_aligned<std::_Default_allocate_traits>, COMDAT
; File C:\Program Files\Microsoft Visual Studio\2022\Preview\VC\Tools\MSVC\14.30.30423\include\xmemory
; Line 134
	push	ebp
	mov	ebp, esp
	sub	esp, 12					; 0000000cH
; Line 136
	mov	eax, DWORD PTR __Bytes$[ebp]
	add	eax, 35					; 00000023H
	mov	DWORD PTR __Block_size$[ebp], eax
; Line 137
	mov	ecx, DWORD PTR __Block_size$[ebp]
	cmp	ecx, DWORD PTR __Bytes$[ebp]
	ja	SHORT $LN8@Allocate_m
; Line 138
	call	?_Throw_bad_array_new_length@std@@YAXXZ	; std::_Throw_bad_array_new_length
$LN8@Allocate_m:
; Line 141
	mov	edx, DWORD PTR __Block_size$[ebp]
	push	edx
	call	?_Allocate@_Default_allocate_traits@std@@SAPAXI@Z ; std::_Default_allocate_traits::_Allocate
	add	esp, 4
	mov	DWORD PTR __Ptr_container$[ebp], eax
$LN4@Allocate_m:
; Line 142
	cmp	DWORD PTR __Ptr_container$[ebp], 0
	je	SHORT $LN7@Allocate_m
	jmp	SHORT $LN2@Allocate_m
$LN7@Allocate_m:
	call	__invalid_parameter_noinfo_noreturn
	xor	eax, eax
	jne	SHORT $LN7@Allocate_m
$LN2@Allocate_m:
	xor	ecx, ecx
	jne	SHORT $LN4@Allocate_m
; Line 143
	mov	edx, DWORD PTR __Ptr_container$[ebp]
	add	edx, 35					; 00000023H
	and	edx, -32				; ffffffe0H
	mov	DWORD PTR __Ptr$[ebp], edx
; Line 144
	mov	eax, 4
	imul	ecx, eax, -1
	mov	edx, DWORD PTR __Ptr$[ebp]
	mov	eax, DWORD PTR __Ptr_container$[ebp]
	mov	DWORD PTR [edx+ecx], eax
; Line 149
	mov	eax, DWORD PTR __Ptr$[ebp]
$LN11@Allocate_m:
; Line 150
	mov	esp, ebp
	pop	ebp
	ret	0
??$_Allocate_manually_vector_aligned@U_Default_allocate_traits@std@@@std@@YAPAXI@Z ENDP ; std::_Allocate_manually_vector_aligned<std::_Default_allocate_traits>
_TEXT	ENDS
; Function compile flags: /Odtp
;	COMDAT ??$forward@AAPAD@std@@YAAAPADAAPAD@Z
_TEXT	SEGMENT
__Arg$ = 8						; size = 4
??$forward@AAPAD@std@@YAAAPADAAPAD@Z PROC		; std::forward<char * &>, COMDAT
; File C:\Program Files\Microsoft Visual Studio\2022\Preview\VC\Tools\MSVC\14.30.30423\include\type_traits
; Line 1448
	push	ebp
	mov	ebp, esp
; Line 1449
	mov	eax, DWORD PTR __Arg$[ebp]
; Line 1450
	pop	ebp
	ret	0
??$forward@AAPAD@std@@YAAAPADAAPAD@Z ENDP		; std::forward<char * &>
_TEXT	ENDS
; Function compile flags: /Odtp
;	COMDAT ??$forward@ABQAD@std@@YAABQADABQAD@Z
_TEXT	SEGMENT
__Arg$ = 8						; size = 4
??$forward@ABQAD@std@@YAABQADABQAD@Z PROC		; std::forward<char * const &>, COMDAT
; File C:\Program Files\Microsoft Visual Studio\2022\Preview\VC\Tools\MSVC\14.30.30423\include\type_traits
; Line 1448
	push	ebp
	mov	ebp, esp
; Line 1449
	mov	eax, DWORD PTR __Arg$[ebp]
; Line 1450
	pop	ebp
	ret	0
??$forward@ABQAD@std@@YAABQADABQAD@Z ENDP		; std::forward<char * const &>
_TEXT	ENDS
; Function compile flags: /Odtp
;	COMDAT ??$_Voidify_iter@PAPAD@std@@YAPAXPAPAD@Z
_TEXT	SEGMENT
__It$ = 8						; size = 4
??$_Voidify_iter@PAPAD@std@@YAPAXPAPAD@Z PROC		; std::_Voidify_iter<char * *>, COMDAT
; File C:\Program Files\Microsoft Visual Studio\2022\Preview\VC\Tools\MSVC\14.30.30423\include\xutility
; Line 130
	push	ebp
	mov	ebp, esp
; Line 132
	mov	eax, DWORD PTR __It$[ebp]
; Line 136
	pop	ebp
	ret	0
??$_Voidify_iter@PAPAD@std@@YAPAXPAPAD@Z ENDP		; std::_Voidify_iter<char * *>
_TEXT	ENDS
; Function compile flags: /Odtp
;	COMDAT ??$addressof@PAD@std@@YAPAPADAAPAD@Z
_TEXT	SEGMENT
__Val$ = 8						; size = 4
??$addressof@PAD@std@@YAPAPADAAPAD@Z PROC		; std::addressof<char *>, COMDAT
; File C:\Program Files\Microsoft Visual Studio\2022\Preview\VC\Tools\MSVC\14.30.30423\include\xstddef
; Line 274
	push	ebp
	mov	ebp, esp
; Line 275
	mov	eax, DWORD PTR __Val$[ebp]
; Line 276
	pop	ebp
	ret	0
??$addressof@PAD@std@@YAPAPADAAPAD@Z ENDP		; std::addressof<char *>
_TEXT	ENDS
; Function compile flags: /Odtp
;	COMDAT ??$forward@V?$allocator@D@std@@@std@@YA$$QAV?$allocator@D@0@AAV10@@Z
_TEXT	SEGMENT
__Arg$ = 8						; size = 4
??$forward@V?$allocator@D@std@@@std@@YA$$QAV?$allocator@D@0@AAV10@@Z PROC ; std::forward<std::allocator<char> >, COMDAT
; File C:\Program Files\Microsoft Visual Studio\2022\Preview\VC\Tools\MSVC\14.30.30423\include\type_traits
; Line 1448
	push	ebp
	mov	ebp, esp
; Line 1449
	mov	eax, DWORD PTR __Arg$[ebp]
; Line 1450
	pop	ebp
	ret	0
??$forward@V?$allocator@D@std@@@std@@YA$$QAV?$allocator@D@0@AAV10@@Z ENDP ; std::forward<std::allocator<char> >
_TEXT	ENDS
; Function compile flags: /Odtp
;	COMDAT ??$_Allocate@$07U_Default_allocate_traits@std@@$0A@@std@@YAPAXI@Z
_TEXT	SEGMENT
__Bytes$ = 8						; size = 4
??$_Allocate@$07U_Default_allocate_traits@std@@$0A@@std@@YAPAXI@Z PROC ; std::_Allocate<8,std::_Default_allocate_traits,0>, COMDAT
; File C:\Program Files\Microsoft Visual Studio\2022\Preview\VC\Tools\MSVC\14.30.30423\include\xmemory
; Line 230
	push	ebp
	mov	ebp, esp
; Line 237
	cmp	DWORD PTR __Bytes$[ebp], 4096		; 00001000H
	jb	SHORT $LN2@Allocate
; Line 238
	mov	eax, DWORD PTR __Bytes$[ebp]
	push	eax
	call	??$_Allocate_manually_vector_aligned@U_Default_allocate_traits@std@@@std@@YAPAXI@Z ; std::_Allocate_manually_vector_aligned<std::_Default_allocate_traits>
	add	esp, 4
	jmp	SHORT $LN1@Allocate
$LN2@Allocate:
; Line 243
	cmp	DWORD PTR __Bytes$[ebp], 0
	je	SHORT $LN3@Allocate
; Line 244
	mov	ecx, DWORD PTR __Bytes$[ebp]
	push	ecx
	call	?_Allocate@_Default_allocate_traits@std@@SAPAXI@Z ; std::_Default_allocate_traits::_Allocate
	add	esp, 4
	jmp	SHORT $LN1@Allocate
$LN3@Allocate:
; Line 247
	xor	eax, eax
$LN1@Allocate:
; Line 248
	pop	ebp
	ret	0
??$_Allocate@$07U_Default_allocate_traits@std@@$0A@@std@@YAPAXI@Z ENDP ; std::_Allocate<8,std::_Default_allocate_traits,0>
_TEXT	ENDS
; Function compile flags: /Odtp
;	COMDAT ??$_Get_size_of_n@$00@std@@YAII@Z
_TEXT	SEGMENT
__Overflow_is_possible$ = -1				; size = 1
__Count$ = 8						; size = 4
??$_Get_size_of_n@$00@std@@YAII@Z PROC			; std::_Get_size_of_n<1>, COMDAT
; File C:\Program Files\Microsoft Visual Studio\2022\Preview\VC\Tools\MSVC\14.30.30423\include\xmemory
; Line 59
	push	ebp
	mov	ebp, esp
	push	ecx
; Line 60
	mov	BYTE PTR __Overflow_is_possible$[ebp], 0
; Line 69
	mov	eax, DWORD PTR __Count$[ebp]
; Line 70
	mov	esp, ebp
	pop	ebp
	ret	0
??$_Get_size_of_n@$00@std@@YAII@Z ENDP			; std::_Get_size_of_n<1>
_TEXT	ENDS
; Function compile flags: /Odtp
;	COMDAT ??$addressof@$$CBV?$_String_val@U?$_Simple_types@D@std@@@std@@@std@@YAPBV?$_String_val@U?$_Simple_types@D@std@@@0@ABV10@@Z
_TEXT	SEGMENT
__Val$ = 8						; size = 4
??$addressof@$$CBV?$_String_val@U?$_Simple_types@D@std@@@std@@@std@@YAPBV?$_String_val@U?$_Simple_types@D@std@@@0@ABV10@@Z PROC ; std::addressof<std::_String_val<std::_Simple_types<char> > const >, COMDAT
; File C:\Program Files\Microsoft Visual Studio\2022\Preview\VC\Tools\MSVC\14.30.30423\include\xstddef
; Line 274
	push	ebp
	mov	ebp, esp
; Line 275
	mov	eax, DWORD PTR __Val$[ebp]
; Line 276
	pop	ebp
	ret	0
??$addressof@$$CBV?$_String_val@U?$_Simple_types@D@std@@@std@@@std@@YAPBV?$_String_val@U?$_Simple_types@D@std@@@0@ABV10@@Z ENDP ; std::addressof<std::_String_val<std::_Simple_types<char> > const >
_TEXT	ENDS
; Function compile flags: /Odtp
;	COMDAT ??$addressof@V?$_String_val@U?$_Simple_types@D@std@@@std@@@std@@YAPAV?$_String_val@U?$_Simple_types@D@std@@@0@AAV10@@Z
_TEXT	SEGMENT
__Val$ = 8						; size = 4
??$addressof@V?$_String_val@U?$_Simple_types@D@std@@@std@@@std@@YAPAV?$_String_val@U?$_Simple_types@D@std@@@0@AAV10@@Z PROC ; std::addressof<std::_String_val<std::_Simple_types<char> > >, COMDAT
; File C:\Program Files\Microsoft Visual Studio\2022\Preview\VC\Tools\MSVC\14.30.30423\include\xstddef
; Line 274
	push	ebp
	mov	ebp, esp
; Line 275
	mov	eax, DWORD PTR __Val$[ebp]
; Line 276
	pop	ebp
	ret	0
??$addressof@V?$_String_val@U?$_Simple_types@D@std@@@std@@@std@@YAPAV?$_String_val@U?$_Simple_types@D@std@@@0@AAV10@@Z ENDP ; std::addressof<std::_String_val<std::_Simple_types<char> > >
_TEXT	ENDS
; Function compile flags: /Odtp
;	COMDAT ??$_Deallocate@$07$0A@@std@@YAXPAXI@Z
_TEXT	SEGMENT
__Ptr$ = 8						; size = 4
__Bytes$ = 12						; size = 4
??$_Deallocate@$07$0A@@std@@YAXPAXI@Z PROC		; std::_Deallocate<8,0>, COMDAT
; File C:\Program Files\Microsoft Visual Studio\2022\Preview\VC\Tools\MSVC\14.30.30423\include\xmemory
; Line 251
	push	ebp
	mov	ebp, esp
; Line 260
	cmp	DWORD PTR __Bytes$[ebp], 4096		; 00001000H
	jb	SHORT $LN2@Deallocate
; Line 261
	lea	eax, DWORD PTR __Bytes$[ebp]
	push	eax
	lea	ecx, DWORD PTR __Ptr$[ebp]
	push	ecx
	call	?_Adjust_manually_vector_aligned@std@@YAXAAPAXAAI@Z ; std::_Adjust_manually_vector_aligned
	add	esp, 8
$LN2@Deallocate:
; Line 264
	mov	edx, DWORD PTR __Bytes$[ebp]
	push	edx
	mov	eax, DWORD PTR __Ptr$[ebp]
	push	eax
	call	??3@YAXPAXI@Z				; operator delete
	add	esp, 8
; Line 266
	pop	ebp
	ret	0
??$_Deallocate@$07$0A@@std@@YAXPAXI@Z ENDP		; std::_Deallocate<8,0>
_TEXT	ENDS
; Function compile flags: /Odtp
;	COMDAT ??$max@I@std@@YAABIABI0@Z
_TEXT	SEGMENT
$T1 = -8						; size = 4
tv65 = -4						; size = 4
__Left$ = 8						; size = 4
__Right$ = 12						; size = 4
??$max@I@std@@YAABIABI0@Z PROC				; std::max<unsigned int>, COMDAT
; File C:\Program Files\Microsoft Visual Studio\2022\Preview\VC\Tools\MSVC\14.30.30423\include\utility
; Line 42
	push	ebp
	mov	ebp, esp
	sub	esp, 8
; Line 44
	mov	eax, DWORD PTR __Left$[ebp]
	mov	ecx, DWORD PTR __Right$[ebp]
	mov	edx, DWORD PTR [eax]
	cmp	edx, DWORD PTR [ecx]
	jae	SHORT $LN3@max
	mov	eax, DWORD PTR __Right$[ebp]
	mov	DWORD PTR tv65[ebp], eax
	jmp	SHORT $LN4@max
$LN3@max:
	mov	ecx, DWORD PTR __Left$[ebp]
	mov	DWORD PTR tv65[ebp], ecx
$LN4@max:
	mov	edx, DWORD PTR tv65[ebp]
	mov	DWORD PTR $T1[ebp], edx
	mov	eax, DWORD PTR $T1[ebp]
; Line 45
	mov	esp, ebp
	pop	ebp
	ret	0
??$max@I@std@@YAABIABI0@Z ENDP				; std::max<unsigned int>
_TEXT	ENDS
; Function compile flags: /Odtp
;	COMDAT ??$_Construct_in_place@PADAAPAD@std@@YAXAAPAD0@Z
_TEXT	SEGMENT
$T1 = -4						; size = 4
__Obj$ = 8						; size = 4
_<_Args_0>$ = 12					; size = 4
??$_Construct_in_place@PADAAPAD@std@@YAXAAPAD0@Z PROC	; std::_Construct_in_place<char *,char * &>, COMDAT
; File C:\Program Files\Microsoft Visual Studio\2022\Preview\VC\Tools\MSVC\14.30.30423\include\xutility
; Line 151
	push	ebp
	mov	ebp, esp
	push	ecx
; Line 158
	mov	eax, DWORD PTR __Obj$[ebp]
	push	eax
	call	??$addressof@PAD@std@@YAPAPADAAPAD@Z	; std::addressof<char *>
	add	esp, 4
	push	eax
	call	??$_Voidify_iter@PAPAD@std@@YAPAXPAPAD@Z ; std::_Voidify_iter<char * *>
	add	esp, 4
	push	eax
	push	4
	call	??2@YAPAXIPAX@Z				; operator new
	add	esp, 8
	mov	DWORD PTR $T1[ebp], eax
	mov	ecx, DWORD PTR _<_Args_0>$[ebp]
	push	ecx
	call	??$forward@AAPAD@std@@YAAAPADAAPAD@Z	; std::forward<char * &>
	add	esp, 4
	mov	edx, DWORD PTR $T1[ebp]
	mov	eax, DWORD PTR [eax]
	mov	DWORD PTR [edx], eax
; Line 160
	mov	esp, ebp
	pop	ebp
	ret	0
??$_Construct_in_place@PADAAPAD@std@@YAXAAPAD0@Z ENDP	; std::_Construct_in_place<char *,char * &>
_TEXT	ENDS
; Function compile flags: /Odtp
;	COMDAT ??$_Unfancy@D@std@@YAPADPAD@Z
_TEXT	SEGMENT
__Ptr$ = 8						; size = 4
??$_Unfancy@D@std@@YAPADPAD@Z PROC			; std::_Unfancy<char>, COMDAT
; File C:\Program Files\Microsoft Visual Studio\2022\Preview\VC\Tools\MSVC\14.30.30423\include\xstddef
; Line 288
	push	ebp
	mov	ebp, esp
; Line 289
	mov	eax, DWORD PTR __Ptr$[ebp]
; Line 290
	pop	ebp
	ret	0
??$_Unfancy@D@std@@YAPADPAD@Z ENDP			; std::_Unfancy<char>
_TEXT	ENDS
; Function compile flags: /Odtp
;	COMDAT ??$_Construct_in_place@PADABQAD@std@@YAXAAPADABQAD@Z
_TEXT	SEGMENT
$T1 = -4						; size = 4
__Obj$ = 8						; size = 4
_<_Args_0>$ = 12					; size = 4
??$_Construct_in_place@PADABQAD@std@@YAXAAPADABQAD@Z PROC ; std::_Construct_in_place<char *,char * const &>, COMDAT
; File C:\Program Files\Microsoft Visual Studio\2022\Preview\VC\Tools\MSVC\14.30.30423\include\xutility
; Line 151
	push	ebp
	mov	ebp, esp
	push	ecx
; Line 158
	mov	eax, DWORD PTR __Obj$[ebp]
	push	eax
	call	??$addressof@PAD@std@@YAPAPADAAPAD@Z	; std::addressof<char *>
	add	esp, 4
	push	eax
	call	??$_Voidify_iter@PAPAD@std@@YAPAXPAPAD@Z ; std::_Voidify_iter<char * *>
	add	esp, 4
	push	eax
	push	4
	call	??2@YAPAXIPAX@Z				; operator new
	add	esp, 8
	mov	DWORD PTR $T1[ebp], eax
	mov	ecx, DWORD PTR _<_Args_0>$[ebp]
	push	ecx
	call	??$forward@ABQAD@std@@YAABQADABQAD@Z	; std::forward<char * const &>
	add	esp, 4
	mov	edx, DWORD PTR $T1[ebp]
	mov	eax, DWORD PTR [eax]
	mov	DWORD PTR [edx], eax
; Line 160
	mov	esp, ebp
	pop	ebp
	ret	0
??$_Construct_in_place@PADABQAD@std@@YAXAAPADABQAD@Z ENDP ; std::_Construct_in_place<char *,char * const &>
_TEXT	ENDS
; Function compile flags: /Odtp
;	COMDAT ??$min@I@std@@YAABIABI0@Z
_TEXT	SEGMENT
$T1 = -8						; size = 4
tv65 = -4						; size = 4
__Left$ = 8						; size = 4
__Right$ = 12						; size = 4
??$min@I@std@@YAABIABI0@Z PROC				; std::min<unsigned int>, COMDAT
; File C:\Program Files\Microsoft Visual Studio\2022\Preview\VC\Tools\MSVC\14.30.30423\include\utility
; Line 66
	push	ebp
	mov	ebp, esp
	sub	esp, 8
; Line 68
	mov	eax, DWORD PTR __Right$[ebp]
	mov	ecx, DWORD PTR __Left$[ebp]
	mov	edx, DWORD PTR [eax]
	cmp	edx, DWORD PTR [ecx]
	jae	SHORT $LN3@min
	mov	eax, DWORD PTR __Right$[ebp]
	mov	DWORD PTR tv65[ebp], eax
	jmp	SHORT $LN4@min
$LN3@min:
	mov	ecx, DWORD PTR __Left$[ebp]
	mov	DWORD PTR tv65[ebp], ecx
$LN4@min:
	mov	edx, DWORD PTR tv65[ebp]
	mov	DWORD PTR $T1[ebp], edx
	mov	eax, DWORD PTR $T1[ebp]
; Line 69
	mov	esp, ebp
	pop	ebp
	ret	0
??$min@I@std@@YAABIABI0@Z ENDP				; std::min<unsigned int>
_TEXT	ENDS
; Function compile flags: /Odtp
;	COMDAT ??$_Reallocate_for@V<lambda_9366063389c5f42a00a5088cf24e69de>@@PBD@?$basic_string@DU?$char_traits@D@std@@V?$allocator@D@2@@std@@AAEAAV01@IV<lambda_9366063389c5f42a00a5088cf24e69de>@@PBD@Z
_TEXT	SEGMENT
__Al$ = -20						; size = 4
__Old_capacity$ = -16					; size = 4
__New_capacity$ = -12					; size = 4
__New_ptr$ = -8						; size = 4
_this$ = -4						; size = 4
__New_size$ = 8						; size = 4
__Fn$ = 12						; size = 1
_<_Args_0>$ = 16					; size = 4
??$_Reallocate_for@V<lambda_9366063389c5f42a00a5088cf24e69de>@@PBD@?$basic_string@DU?$char_traits@D@std@@V?$allocator@D@2@@std@@AAEAAV01@IV<lambda_9366063389c5f42a00a5088cf24e69de>@@PBD@Z PROC ; std::basic_string<char,std::char_traits<char>,std::allocator<char> >::_Reallocate_for<<lambda_9366063389c5f42a00a5088cf24e69de>,char const *>, COMDAT
; _this$ = ecx
; File C:\Program Files\Microsoft Visual Studio\2022\Preview\VC\Tools\MSVC\14.30.30423\include\xstring
; Line 4569
	push	ebp
	mov	ebp, esp
	sub	esp, 20					; 00000014H
	mov	DWORD PTR _this$[ebp], ecx
; Line 4572
	mov	ecx, DWORD PTR _this$[ebp]
	call	?max_size@?$basic_string@DU?$char_traits@D@std@@V?$allocator@D@2@@std@@QBEIXZ ; std::basic_string<char,std::char_traits<char>,std::allocator<char> >::max_size
	cmp	DWORD PTR __New_size$[ebp], eax
	jbe	SHORT $LN2@Reallocate
; Line 4573
	call	?_Xlen_string@std@@YAXXZ		; std::_Xlen_string
$LN2@Reallocate:
; Line 4576
	mov	eax, DWORD PTR _this$[ebp]
	mov	ecx, DWORD PTR [eax+20]
	mov	DWORD PTR __Old_capacity$[ebp], ecx
; Line 4577
	mov	edx, DWORD PTR __New_size$[ebp]
	push	edx
	mov	ecx, DWORD PTR _this$[ebp]
	call	?_Calculate_growth@?$basic_string@DU?$char_traits@D@std@@V?$allocator@D@2@@std@@ABEII@Z ; std::basic_string<char,std::char_traits<char>,std::allocator<char> >::_Calculate_growth
	mov	DWORD PTR __New_capacity$[ebp], eax
; Line 4578
	mov	ecx, DWORD PTR _this$[ebp]
	call	?_Getal@?$basic_string@DU?$char_traits@D@std@@V?$allocator@D@2@@std@@AAEAAV?$allocator@D@2@XZ ; std::basic_string<char,std::char_traits<char>,std::allocator<char> >::_Getal
	mov	DWORD PTR __Al$[ebp], eax
; Line 4579
	mov	eax, DWORD PTR __New_capacity$[ebp]
	add	eax, 1
	push	eax
	mov	ecx, DWORD PTR __Al$[ebp]
	call	?allocate@?$allocator@D@std@@QAEPADI@Z	; std::allocator<char>::allocate
	mov	DWORD PTR __New_ptr$[ebp], eax
; Line 4586
	mov	ecx, DWORD PTR _this$[ebp]
	call	?_Orphan_all@_Container_base0@std@@QAEXXZ ; std::_Container_base0::_Orphan_all
; Line 4587
	mov	ecx, DWORD PTR _this$[ebp]
	mov	edx, DWORD PTR __New_size$[ebp]
	mov	DWORD PTR [ecx+16], edx
; Line 4588
	mov	eax, DWORD PTR _this$[ebp]
	mov	ecx, DWORD PTR __New_capacity$[ebp]
	mov	DWORD PTR [eax+20], ecx
; Line 4589
	mov	edx, DWORD PTR _<_Args_0>$[ebp]
	push	edx
	mov	eax, DWORD PTR __New_size$[ebp]
	push	eax
	mov	ecx, DWORD PTR __New_ptr$[ebp]
	push	ecx
	call	??$_Unfancy@D@std@@YAPADPAD@Z		; std::_Unfancy<char>
	add	esp, 4
	push	eax
	lea	ecx, DWORD PTR __Fn$[ebp]
	call	??R<lambda_9366063389c5f42a00a5088cf24e69de>@@QBE@QADIQBD@Z ; <lambda_9366063389c5f42a00a5088cf24e69de>::operator()
; Line 4590
	cmp	DWORD PTR __Old_capacity$[ebp], 16	; 00000010H
	jb	SHORT $LN3@Reallocate
; Line 4591
	mov	edx, DWORD PTR __Old_capacity$[ebp]
	add	edx, 1
	push	edx
	mov	eax, DWORD PTR _this$[ebp]
	mov	ecx, DWORD PTR [eax]
	push	ecx
	mov	ecx, DWORD PTR __Al$[ebp]
	call	?deallocate@?$allocator@D@std@@QAEXQADI@Z ; std::allocator<char>::deallocate
; Line 4592
	mov	edx, DWORD PTR _this$[ebp]
	mov	eax, DWORD PTR __New_ptr$[ebp]
	mov	DWORD PTR [edx], eax
; Line 4593
	jmp	SHORT $LN4@Reallocate
$LN3@Reallocate:
; Line 4594
	lea	ecx, DWORD PTR __New_ptr$[ebp]
	push	ecx
	mov	edx, DWORD PTR _this$[ebp]
	push	edx
	call	??$_Construct_in_place@PADABQAD@std@@YAXAAPADABQAD@Z ; std::_Construct_in_place<char *,char * const &>
	add	esp, 8
$LN4@Reallocate:
; Line 4597
	mov	eax, DWORD PTR _this$[ebp]
$LN5@Reallocate:
; Line 4598
	mov	esp, ebp
	pop	ebp
	ret	12					; 0000000cH
??$_Reallocate_for@V<lambda_9366063389c5f42a00a5088cf24e69de>@@PBD@?$basic_string@DU?$char_traits@D@std@@V?$allocator@D@2@@std@@AAEAAV01@IV<lambda_9366063389c5f42a00a5088cf24e69de>@@PBD@Z ENDP ; std::basic_string<char,std::char_traits<char>,std::allocator<char> >::_Reallocate_for<<lambda_9366063389c5f42a00a5088cf24e69de>,char const *>
_TEXT	ENDS
; Function compile flags: /Odtp
;	COMDAT ??R<lambda_9366063389c5f42a00a5088cf24e69de>@@QBE@QADIQBD@Z
_TEXT	SEGMENT
_this$ = -8						; size = 4
$T1 = -1						; size = 1
__New_ptr$ = 8						; size = 4
__Count$ = 12						; size = 4
__Ptr$ = 16						; size = 4
??R<lambda_9366063389c5f42a00a5088cf24e69de>@@QBE@QADIQBD@Z PROC ; <lambda_9366063389c5f42a00a5088cf24e69de>::operator(), COMDAT
; _this$ = ecx
; File C:\Program Files\Microsoft Visual Studio\2022\Preview\VC\Tools\MSVC\14.30.30423\include\xstring
; Line 3306
	push	ebp
	mov	ebp, esp
	sub	esp, 8
	mov	DWORD PTR _this$[ebp], ecx
; Line 3307
	mov	eax, DWORD PTR __Count$[ebp]
	push	eax
	mov	ecx, DWORD PTR __Ptr$[ebp]
	push	ecx
	mov	edx, DWORD PTR __New_ptr$[ebp]
	push	edx
	call	?copy@?$_Char_traits@DH@std@@SAPADQADQBDI@Z ; std::_Char_traits<char,int>::copy
	add	esp, 12					; 0000000cH
; Line 3308
	mov	BYTE PTR $T1[ebp], 0
	lea	eax, DWORD PTR $T1[ebp]
	push	eax
	mov	ecx, DWORD PTR __New_ptr$[ebp]
	add	ecx, DWORD PTR __Count$[ebp]
	push	ecx
	call	?assign@?$_Narrow_char_traits@DH@std@@SAXAADABD@Z ; std::_Narrow_char_traits<char,int>::assign
	add	esp, 8
; Line 3309
	mov	esp, ebp
	pop	ebp
	ret	12					; 0000000cH
??R<lambda_9366063389c5f42a00a5088cf24e69de>@@QBE@QADIQBD@Z ENDP ; <lambda_9366063389c5f42a00a5088cf24e69de>::operator()
_TEXT	ENDS
; Function compile flags: /Odtp
;	COMDAT ??$_Destroy_in_place@PAD@std@@YAXAAPAD@Z
_TEXT	SEGMENT
__Obj$ = 8						; size = 4
??$_Destroy_in_place@PAD@std@@YAXAAPAD@Z PROC		; std::_Destroy_in_place<char *>, COMDAT
; File C:\Program Files\Microsoft Visual Studio\2022\Preview\VC\Tools\MSVC\14.30.30423\include\xmemory
; Line 307
	push	ebp
	mov	ebp, esp
; Line 313
	pop	ebp
	ret	0
??$_Destroy_in_place@PAD@std@@YAXAAPAD@Z ENDP		; std::_Destroy_in_place<char *>
_TEXT	ENDS
; Function compile flags: /Odtp
;	COMDAT ??$?0$$V@?$_Compressed_pair@V?$allocator@D@std@@V?$_String_val@U?$_Simple_types@D@std@@@2@$00@std@@QAE@U_Zero_then_variadic_args_t@1@@Z
_TEXT	SEGMENT
_this$ = -4						; size = 4
___formal$ = 8						; size = 1
??$?0$$V@?$_Compressed_pair@V?$allocator@D@std@@V?$_String_val@U?$_Simple_types@D@std@@@2@$00@std@@QAE@U_Zero_then_variadic_args_t@1@@Z PROC ; std::_Compressed_pair<std::allocator<char>,std::_String_val<std::_Simple_types<char> >,1>::_Compressed_pair<std::allocator<char>,std::_String_val<std::_Simple_types<char> >,1><>, COMDAT
; _this$ = ecx
; File C:\Program Files\Microsoft Visual Studio\2022\Preview\VC\Tools\MSVC\14.30.30423\include\xmemory
; Line 1370
	push	ebp
	mov	ebp, esp
	push	ecx
	mov	DWORD PTR _this$[ebp], ecx
	mov	ecx, DWORD PTR _this$[ebp]
	call	??0?$allocator@D@std@@QAE@XZ		; std::allocator<char>::allocator<char>
	mov	ecx, DWORD PTR _this$[ebp]
	call	??0?$_String_val@U?$_Simple_types@D@std@@@std@@QAE@XZ ; std::_String_val<std::_Simple_types<char> >::_String_val<std::_Simple_types<char> >
	mov	eax, DWORD PTR _this$[ebp]
	mov	esp, ebp
	pop	ebp
	ret	4
??$?0$$V@?$_Compressed_pair@V?$allocator@D@std@@V?$_String_val@U?$_Simple_types@D@std@@@2@$00@std@@QAE@U_Zero_then_variadic_args_t@1@@Z ENDP ; std::_Compressed_pair<std::allocator<char>,std::_String_val<std::_Simple_types<char> >,1>::_Compressed_pair<std::allocator<char>,std::_String_val<std::_Simple_types<char> >,1><>
_TEXT	ENDS
; Function compile flags: /Odtp
;	COMDAT ??$?0V?$allocator@D@std@@$$V@?$_Compressed_pair@V?$allocator@D@std@@V?$_String_val@U?$_Simple_types@D@std@@@2@$00@std@@QAE@U_One_then_variadic_args_t@1@$$QAV?$allocator@D@1@@Z
_TEXT	SEGMENT
_this$ = -4						; size = 4
___formal$ = 8						; size = 1
__Val1$ = 12						; size = 4
??$?0V?$allocator@D@std@@$$V@?$_Compressed_pair@V?$allocator@D@std@@V?$_String_val@U?$_Simple_types@D@std@@@2@$00@std@@QAE@U_One_then_variadic_args_t@1@$$QAV?$allocator@D@1@@Z PROC ; std::_Compressed_pair<std::allocator<char>,std::_String_val<std::_Simple_types<char> >,1>::_Compressed_pair<std::allocator<char>,std::_String_val<std::_Simple_types<char> >,1><std::allocator<char> >, COMDAT
; _this$ = ecx
; File C:\Program Files\Microsoft Visual Studio\2022\Preview\VC\Tools\MSVC\14.30.30423\include\xmemory
; Line 1375
	push	ebp
	mov	ebp, esp
	push	ecx
	mov	DWORD PTR _this$[ebp], ecx
	mov	eax, DWORD PTR __Val1$[ebp]
	push	eax
	call	??$forward@V?$allocator@D@std@@@std@@YA$$QAV?$allocator@D@0@AAV10@@Z ; std::forward<std::allocator<char> >
	add	esp, 4
	mov	ecx, DWORD PTR _this$[ebp]
	call	??0?$_String_val@U?$_Simple_types@D@std@@@std@@QAE@XZ ; std::_String_val<std::_Simple_types<char> >::_String_val<std::_Simple_types<char> >
	mov	eax, DWORD PTR _this$[ebp]
	mov	esp, ebp
	pop	ebp
	ret	8
??$?0V?$allocator@D@std@@$$V@?$_Compressed_pair@V?$allocator@D@std@@V?$_String_val@U?$_Simple_types@D@std@@@2@$00@std@@QAE@U_One_then_variadic_args_t@1@$$QAV?$allocator@D@1@@Z ENDP ; std::_Compressed_pair<std::allocator<char>,std::_String_val<std::_Simple_types<char> >,1>::_Compressed_pair<std::allocator<char>,std::_String_val<std::_Simple_types<char> >,1><std::allocator<char> >
_TEXT	ENDS
; Function compile flags: /Odtp
;	COMDAT ??$move@AAV?$allocator@D@std@@@std@@YA$$QAV?$allocator@D@0@AAV10@@Z
_TEXT	SEGMENT
__Arg$ = 8						; size = 4
??$move@AAV?$allocator@D@std@@@std@@YA$$QAV?$allocator@D@0@AAV10@@Z PROC ; std::move<std::allocator<char> &>, COMDAT
; File C:\Program Files\Microsoft Visual Studio\2022\Preview\VC\Tools\MSVC\14.30.30423\include\type_traits
; Line 1460
	push	ebp
	mov	ebp, esp
; Line 1461
	mov	eax, DWORD PTR __Arg$[ebp]
; Line 1462
	pop	ebp
	ret	0
??$move@AAV?$allocator@D@std@@@std@@YA$$QAV?$allocator@D@0@AAV10@@Z ENDP ; std::move<std::allocator<char> &>
_TEXT	ENDS
; Function compile flags: /Odtp
_TEXT	SEGMENT
_c$ = -40						; size = 19
_b$ = -20						; size = 8
_a$ = -12						; size = 4
_j$1 = -8						; size = 4
_i$ = -4						; size = 4
?main1@@YAHXZ PROC					; main1
; File C:\Users\Zmrbak\source\repos\RE306\RE306\RE306.cpp
; Line 21
	push	ebp
	mov	ebp, esp
	sub	esp, 40					; 00000028H
; Line 22
	mov	DWORD PTR _a$[ebp], OFFSET $SG34076
; Line 23
	mov	eax, DWORD PTR $SG34077
	mov	ecx, DWORD PTR $SG34077+4
	mov	DWORD PTR _b$[ebp], eax
	mov	DWORD PTR _b$[ebp+4], ecx
; Line 26
	mov	DWORD PTR _i$[ebp], 0
; Line 28
	jmp	SHORT $LN4@main1
$LN2@main1:
	mov	edx, DWORD PTR _i$[ebp]
	add	edx, 1
	mov	DWORD PTR _i$[ebp], edx
$LN4@main1:
	mov	eax, DWORD PTR _a$[ebp]
	push	eax
	call	_strlen
	add	esp, 4
	cmp	DWORD PTR _i$[ebp], eax
	jae	SHORT $LN3@main1
; Line 30
	mov	ecx, DWORD PTR _a$[ebp]
	add	ecx, DWORD PTR _i$[ebp]
	mov	edx, DWORD PTR _i$[ebp]
	mov	al, BYTE PTR [ecx]
	mov	BYTE PTR _c$[ebp+edx], al
; Line 31
	jmp	SHORT $LN2@main1
$LN3@main1:
; Line 33
	mov	DWORD PTR _j$1[ebp], 0
	jmp	SHORT $LN7@main1
$LN5@main1:
	mov	ecx, DWORD PTR _j$1[ebp]
	add	ecx, 1
	mov	DWORD PTR _j$1[ebp], ecx
$LN7@main1:
	lea	edx, DWORD PTR _b$[ebp]
	push	edx
	call	_strlen
	add	esp, 4
	cmp	DWORD PTR _j$1[ebp], eax
	ja	SHORT $LN6@main1
; Line 35
	mov	eax, DWORD PTR _i$[ebp]
	add	eax, DWORD PTR _j$1[ebp]
	mov	ecx, DWORD PTR _j$1[ebp]
	mov	dl, BYTE PTR _b$[ebp+ecx]
	mov	BYTE PTR _c$[ebp+eax], dl
; Line 36
	jmp	SHORT $LN5@main1
$LN6@main1:
; Line 38
	xor	eax, eax
; Line 39
	mov	esp, ebp
	pop	ebp
	ret	0
?main1@@YAHXZ ENDP					; main1
_TEXT	ENDS
; Function compile flags: /Odtp
_TEXT	SEGMENT
_d$ = -24						; size = 24
_main	PROC
; File C:\Users\Zmrbak\source\repos\RE306\RE306\RE306.cpp
; Line 15
	push	ebp
	mov	ebp, esp
	sub	esp, 24					; 00000018H
; Line 16
	lea	eax, DWORD PTR _d$[ebp]
	push	eax
	call	?stringAdd@@YA?AV?$basic_string@DU?$char_traits@D@std@@V?$allocator@D@2@@std@@XZ ; stringAdd
	add	esp, 4
; Line 17
	lea	ecx, DWORD PTR _d$[ebp]
	call	?c_str@?$basic_string@DU?$char_traits@D@std@@V?$allocator@D@2@@std@@QBEPBDXZ ; std::basic_string<char,std::char_traits<char>,std::allocator<char> >::c_str
	push	eax
	push	OFFSET $SG34062
	call	_printf
	add	esp, 8
; Line 18
	lea	ecx, DWORD PTR _d$[ebp]
	call	??1?$basic_string@DU?$char_traits@D@std@@V?$allocator@D@2@@std@@QAE@XZ ; std::basic_string<char,std::char_traits<char>,std::allocator<char> >::~basic_string<char,std::char_traits<char>,std::allocator<char> >
	xor	eax, eax
	mov	esp, ebp
	pop	ebp
	ret	0
_main	ENDP
_TEXT	ENDS
; Function compile flags: /Odtp
;	COMDAT ??$?HDU?$char_traits@D@std@@V?$allocator@D@1@@std@@YA?AV?$basic_string@DU?$char_traits@D@std@@V?$allocator@D@2@@0@ABV10@0@Z
_TEXT	SEGMENT
tv86 = -20						; size = 4
tv89 = -16						; size = 4
__Left_size$ = -12					; size = 4
__Right_size$ = -8					; size = 4
$T1 = -3						; size = 1
$T2 = -2						; size = 1
$T3 = -1						; size = 1
___$ReturnUdt$ = 8					; size = 4
__Left$ = 12						; size = 4
__Right$ = 16						; size = 4
??$?HDU?$char_traits@D@std@@V?$allocator@D@1@@std@@YA?AV?$basic_string@DU?$char_traits@D@std@@V?$allocator@D@2@@0@ABV10@0@Z PROC ; std::operator+<char,std::char_traits<char>,std::allocator<char> >, COMDAT
; File C:\Program Files\Microsoft Visual Studio\2022\Preview\VC\Tools\MSVC\14.30.30423\include\xstring
; Line 4750
	push	ebp
	mov	ebp, esp
	sub	esp, 20					; 00000014H
; Line 4751
	mov	ecx, DWORD PTR __Left$[ebp]
	call	?size@?$basic_string@DU?$char_traits@D@std@@V?$allocator@D@2@@std@@QBEIXZ ; std::basic_string<char,std::char_traits<char>,std::allocator<char> >::size
	mov	DWORD PTR __Left_size$[ebp], eax
; Line 4752
	mov	ecx, DWORD PTR __Right$[ebp]
	call	?size@?$basic_string@DU?$char_traits@D@std@@V?$allocator@D@2@@std@@QBEIXZ ; std::basic_string<char,std::char_traits<char>,std::allocator<char> >::size
	mov	DWORD PTR __Right_size$[ebp], eax
; Line 4753
	mov	ecx, DWORD PTR __Left$[ebp]
	call	?max_size@?$basic_string@DU?$char_traits@D@std@@V?$allocator@D@2@@std@@QBEIXZ ; std::basic_string<char,std::char_traits<char>,std::allocator<char> >::max_size
	sub	eax, DWORD PTR __Left_size$[ebp]
	cmp	eax, DWORD PTR __Right_size$[ebp]
	jae	SHORT $LN2@operator
; Line 4754
	call	?_Xlen_string@std@@YAXXZ		; std::_Xlen_string
$LN2@operator:
; Line 4757
	mov	al, BYTE PTR $T1[ebp]
	mov	BYTE PTR $T3[ebp], al
	mov	cl, BYTE PTR $T3[ebp]
	mov	BYTE PTR $T2[ebp], cl
	mov	ecx, DWORD PTR __Left$[ebp]
	call	?c_str@?$basic_string@DU?$char_traits@D@std@@V?$allocator@D@2@@std@@QBEPBDXZ ; std::basic_string<char,std::char_traits<char>,std::allocator<char> >::c_str
	mov	DWORD PTR tv86[ebp], eax
	mov	ecx, DWORD PTR __Right$[ebp]
	call	?c_str@?$basic_string@DU?$char_traits@D@std@@V?$allocator@D@2@@std@@QBEPBDXZ ; std::basic_string<char,std::char_traits<char>,std::allocator<char> >::c_str
	mov	DWORD PTR tv89[ebp], eax
	mov	edx, DWORD PTR __Right_size$[ebp]
	push	edx
	mov	eax, DWORD PTR tv89[ebp]
	push	eax
	mov	ecx, DWORD PTR __Left_size$[ebp]
	push	ecx
	mov	edx, DWORD PTR tv86[ebp]
	push	edx
	mov	eax, DWORD PTR __Left$[ebp]
	push	eax
	movzx	ecx, BYTE PTR $T2[ebp]
	push	ecx
	mov	ecx, DWORD PTR ___$ReturnUdt$[ebp]
	call	??0?$basic_string@DU?$char_traits@D@std@@V?$allocator@D@2@@std@@QAE@U_String_constructor_concat_tag@1@ABV01@QBDI2I@Z ; std::basic_string<char,std::char_traits<char>,std::allocator<char> >::basic_string<char,std::char_traits<char>,std::allocator<char> >
	mov	eax, DWORD PTR ___$ReturnUdt$[ebp]
$LN3@operator:
; Line 4758
	mov	esp, ebp
	pop	ebp
	ret	0
??$?HDU?$char_traits@D@std@@V?$allocator@D@1@@std@@YA?AV?$basic_string@DU?$char_traits@D@std@@V?$allocator@D@2@@0@ABV10@0@Z ENDP ; std::operator+<char,std::char_traits<char>,std::allocator<char> >
_TEXT	ENDS
; Function compile flags: /Odtp
_TEXT	SEGMENT
_a$ = -72						; size = 24
_b$ = -48						; size = 24
_c$ = -24						; size = 24
___$ReturnUdt$ = 8					; size = 4
?stringAdd@@YA?AV?$basic_string@DU?$char_traits@D@std@@V?$allocator@D@2@@std@@XZ PROC ; stringAdd
; File C:\Users\Zmrbak\source\repos\RE306\RE306\RE306.cpp
; Line 7
	push	ebp
	mov	ebp, esp
	sub	esp, 72					; 00000048H
; Line 8
	push	OFFSET $SG34056
	lea	ecx, DWORD PTR _a$[ebp]
	call	??0?$basic_string@DU?$char_traits@D@std@@V?$allocator@D@2@@std@@QAE@QBD@Z ; std::basic_string<char,std::char_traits<char>,std::allocator<char> >::basic_string<char,std::char_traits<char>,std::allocator<char> >
; Line 9
	push	OFFSET $SG34057
	lea	ecx, DWORD PTR _b$[ebp]
	call	??0?$basic_string@DU?$char_traits@D@std@@V?$allocator@D@2@@std@@QAE@QBD@Z ; std::basic_string<char,std::char_traits<char>,std::allocator<char> >::basic_string<char,std::char_traits<char>,std::allocator<char> >
; Line 10
	lea	eax, DWORD PTR _b$[ebp]
	push	eax
	lea	ecx, DWORD PTR _a$[ebp]
	push	ecx
	lea	edx, DWORD PTR _c$[ebp]
	push	edx
	call	??$?HDU?$char_traits@D@std@@V?$allocator@D@1@@std@@YA?AV?$basic_string@DU?$char_traits@D@std@@V?$allocator@D@2@@0@ABV10@0@Z ; std::operator+<char,std::char_traits<char>,std::allocator<char> >
	add	esp, 12					; 0000000cH
; Line 11
	lea	eax, DWORD PTR _c$[ebp]
	push	eax
	mov	ecx, DWORD PTR ___$ReturnUdt$[ebp]
	call	??0?$basic_string@DU?$char_traits@D@std@@V?$allocator@D@2@@std@@QAE@$$QAV01@@Z ; std::basic_string<char,std::char_traits<char>,std::allocator<char> >::basic_string<char,std::char_traits<char>,std::allocator<char> >
	lea	ecx, DWORD PTR _c$[ebp]
	call	??1?$basic_string@DU?$char_traits@D@std@@V?$allocator@D@2@@std@@QAE@XZ ; std::basic_string<char,std::char_traits<char>,std::allocator<char> >::~basic_string<char,std::char_traits<char>,std::allocator<char> >
	lea	ecx, DWORD PTR _b$[ebp]
	call	??1?$basic_string@DU?$char_traits@D@std@@V?$allocator@D@2@@std@@QAE@XZ ; std::basic_string<char,std::char_traits<char>,std::allocator<char> >::~basic_string<char,std::char_traits<char>,std::allocator<char> >
	lea	ecx, DWORD PTR _a$[ebp]
	call	??1?$basic_string@DU?$char_traits@D@std@@V?$allocator@D@2@@std@@QAE@XZ ; std::basic_string<char,std::char_traits<char>,std::allocator<char> >::~basic_string<char,std::char_traits<char>,std::allocator<char> >
	mov	eax, DWORD PTR ___$ReturnUdt$[ebp]
; Line 12
	mov	esp, ebp
	pop	ebp
	ret	0
?stringAdd@@YA?AV?$basic_string@DU?$char_traits@D@std@@V?$allocator@D@2@@std@@XZ ENDP ; stringAdd
_TEXT	ENDS
; Function compile flags: /Odtp
;	COMDAT ??1?$_Compressed_pair@V?$allocator@D@std@@V?$_String_val@U?$_Simple_types@D@std@@@2@$00@std@@QAE@XZ
_TEXT	SEGMENT
_this$ = -4						; size = 4
??1?$_Compressed_pair@V?$allocator@D@std@@V?$_String_val@U?$_Simple_types@D@std@@@2@$00@std@@QAE@XZ PROC ; std::_Compressed_pair<std::allocator<char>,std::_String_val<std::_Simple_types<char> >,1>::~_Compressed_pair<std::allocator<char>,std::_String_val<std::_Simple_types<char> >,1>, COMDAT
; _this$ = ecx
	push	ebp
	mov	ebp, esp
	push	ecx
	mov	DWORD PTR _this$[ebp], ecx
	mov	ecx, DWORD PTR _this$[ebp]
	call	??1?$_String_val@U?$_Simple_types@D@std@@@std@@QAE@XZ
	mov	esp, ebp
	pop	ebp
	ret	0
??1?$_Compressed_pair@V?$allocator@D@std@@V?$_String_val@U?$_Simple_types@D@std@@@2@$00@std@@QAE@XZ ENDP ; std::_Compressed_pair<std::allocator<char>,std::_String_val<std::_Simple_types<char> >,1>::~_Compressed_pair<std::allocator<char>,std::_String_val<std::_Simple_types<char> >,1>
_TEXT	ENDS
; Function compile flags: /Odtp
;	COMDAT ?_Get_first@?$_Compressed_pair@V?$allocator@D@std@@V?$_String_val@U?$_Simple_types@D@std@@@2@$00@std@@QBEABV?$allocator@D@2@XZ
_TEXT	SEGMENT
_this$ = -4						; size = 4
?_Get_first@?$_Compressed_pair@V?$allocator@D@std@@V?$_String_val@U?$_Simple_types@D@std@@@2@$00@std@@QBEABV?$allocator@D@2@XZ PROC ; std::_Compressed_pair<std::allocator<char>,std::_String_val<std::_Simple_types<char> >,1>::_Get_first, COMDAT
; _this$ = ecx
; File C:\Program Files\Microsoft Visual Studio\2022\Preview\VC\Tools\MSVC\14.30.30423\include\xmemory
; Line 1381
	push	ebp
	mov	ebp, esp
	push	ecx
	mov	DWORD PTR _this$[ebp], ecx
; Line 1382
	mov	eax, DWORD PTR _this$[ebp]
; Line 1383
	mov	esp, ebp
	pop	ebp
	ret	0
?_Get_first@?$_Compressed_pair@V?$allocator@D@std@@V?$_String_val@U?$_Simple_types@D@std@@@2@$00@std@@QBEABV?$allocator@D@2@XZ ENDP ; std::_Compressed_pair<std::allocator<char>,std::_String_val<std::_Simple_types<char> >,1>::_Get_first
_TEXT	ENDS
; Function compile flags: /Odtp
;	COMDAT ?_Get_first@?$_Compressed_pair@V?$allocator@D@std@@V?$_String_val@U?$_Simple_types@D@std@@@2@$00@std@@QAEAAV?$allocator@D@2@XZ
_TEXT	SEGMENT
_this$ = -4						; size = 4
?_Get_first@?$_Compressed_pair@V?$allocator@D@std@@V?$_String_val@U?$_Simple_types@D@std@@@2@$00@std@@QAEAAV?$allocator@D@2@XZ PROC ; std::_Compressed_pair<std::allocator<char>,std::_String_val<std::_Simple_types<char> >,1>::_Get_first, COMDAT
; _this$ = ecx
; File C:\Program Files\Microsoft Visual Studio\2022\Preview\VC\Tools\MSVC\14.30.30423\include\xmemory
; Line 1377
	push	ebp
	mov	ebp, esp
	push	ecx
	mov	DWORD PTR _this$[ebp], ecx
; Line 1378
	mov	eax, DWORD PTR _this$[ebp]
; Line 1379
	mov	esp, ebp
	pop	ebp
	ret	0
?_Get_first@?$_Compressed_pair@V?$allocator@D@std@@V?$_String_val@U?$_Simple_types@D@std@@@2@$00@std@@QAEAAV?$allocator@D@2@XZ ENDP ; std::_Compressed_pair<std::allocator<char>,std::_String_val<std::_Simple_types<char> >,1>::_Get_first
_TEXT	ENDS
; Function compile flags: /Odtp
;	COMDAT ?_Getal@?$basic_string@DU?$char_traits@D@std@@V?$allocator@D@2@@std@@ABEABV?$allocator@D@2@XZ
_TEXT	SEGMENT
_this$ = -4						; size = 4
?_Getal@?$basic_string@DU?$char_traits@D@std@@V?$allocator@D@2@@std@@ABEABV?$allocator@D@2@XZ PROC ; std::basic_string<char,std::char_traits<char>,std::allocator<char> >::_Getal, COMDAT
; _this$ = ecx
; File C:\Program Files\Microsoft Visual Studio\2022\Preview\VC\Tools\MSVC\14.30.30423\include\xstring
; Line 4718
	push	ebp
	mov	ebp, esp
	push	ecx
	mov	DWORD PTR _this$[ebp], ecx
; Line 4719
	mov	ecx, DWORD PTR _this$[ebp]
	call	?_Get_first@?$_Compressed_pair@V?$allocator@D@std@@V?$_String_val@U?$_Simple_types@D@std@@@2@$00@std@@QBEABV?$allocator@D@2@XZ ; std::_Compressed_pair<std::allocator<char>,std::_String_val<std::_Simple_types<char> >,1>::_Get_first
; Line 4720
	mov	esp, ebp
	pop	ebp
	ret	0
?_Getal@?$basic_string@DU?$char_traits@D@std@@V?$allocator@D@2@@std@@ABEABV?$allocator@D@2@XZ ENDP ; std::basic_string<char,std::char_traits<char>,std::allocator<char> >::_Getal
_TEXT	ENDS
; Function compile flags: /Odtp
;	COMDAT ?_Getal@?$basic_string@DU?$char_traits@D@std@@V?$allocator@D@2@@std@@AAEAAV?$allocator@D@2@XZ
_TEXT	SEGMENT
_this$ = -4						; size = 4
?_Getal@?$basic_string@DU?$char_traits@D@std@@V?$allocator@D@2@@std@@AAEAAV?$allocator@D@2@XZ PROC ; std::basic_string<char,std::char_traits<char>,std::allocator<char> >::_Getal, COMDAT
; _this$ = ecx
; File C:\Program Files\Microsoft Visual Studio\2022\Preview\VC\Tools\MSVC\14.30.30423\include\xstring
; Line 4714
	push	ebp
	mov	ebp, esp
	push	ecx
	mov	DWORD PTR _this$[ebp], ecx
; Line 4715
	mov	ecx, DWORD PTR _this$[ebp]
	call	?_Get_first@?$_Compressed_pair@V?$allocator@D@std@@V?$_String_val@U?$_Simple_types@D@std@@@2@$00@std@@QAEAAV?$allocator@D@2@XZ ; std::_Compressed_pair<std::allocator<char>,std::_String_val<std::_Simple_types<char> >,1>::_Get_first
; Line 4716
	mov	esp, ebp
	pop	ebp
	ret	0
?_Getal@?$basic_string@DU?$char_traits@D@std@@V?$allocator@D@2@@std@@AAEAAV?$allocator@D@2@XZ ENDP ; std::basic_string<char,std::char_traits<char>,std::allocator<char> >::_Getal
_TEXT	ENDS
; Function compile flags: /Odtp
;	COMDAT ?_Swap_proxy_and_iterators@?$basic_string@DU?$char_traits@D@std@@V?$allocator@D@2@@std@@AAEXAAV12@@Z
_TEXT	SEGMENT
_this$ = -4						; size = 4
__Right$ = 8						; size = 4
?_Swap_proxy_and_iterators@?$basic_string@DU?$char_traits@D@std@@V?$allocator@D@2@@std@@AAEXAAV12@@Z PROC ; std::basic_string<char,std::char_traits<char>,std::allocator<char> >::_Swap_proxy_and_iterators, COMDAT
; _this$ = ecx
; File C:\Program Files\Microsoft Visual Studio\2022\Preview\VC\Tools\MSVC\14.30.30423\include\xstring
; Line 4710
	push	ebp
	mov	ebp, esp
	push	ecx
	mov	DWORD PTR _this$[ebp], ecx
; Line 4711
	mov	eax, DWORD PTR __Right$[ebp]
	push	eax
	mov	ecx, DWORD PTR _this$[ebp]
	call	?_Swap_proxy_and_iterators@_Container_base0@std@@QAEXAAU12@@Z ; std::_Container_base0::_Swap_proxy_and_iterators
; Line 4712
	mov	esp, ebp
	pop	ebp
	ret	4
?_Swap_proxy_and_iterators@?$basic_string@DU?$char_traits@D@std@@V?$allocator@D@2@@std@@AAEXAAV12@@Z ENDP ; std::basic_string<char,std::char_traits<char>,std::allocator<char> >::_Swap_proxy_and_iterators
_TEXT	ENDS
; Function compile flags: /Odtp
;	COMDAT ?_Tidy_deallocate@?$basic_string@DU?$char_traits@D@std@@V?$allocator@D@2@@std@@AAEXXZ
_TEXT	SEGMENT
__Al$1 = -16						; size = 4
__Ptr$2 = -12						; size = 4
_this$ = -8						; size = 4
$T3 = -1						; size = 1
?_Tidy_deallocate@?$basic_string@DU?$char_traits@D@std@@V?$allocator@D@2@@std@@AAEXXZ PROC ; std::basic_string<char,std::char_traits<char>,std::allocator<char> >::_Tidy_deallocate, COMDAT
; _this$ = ecx
; File C:\Program Files\Microsoft Visual Studio\2022\Preview\VC\Tools\MSVC\14.30.30423\include\xstring
; Line 4680
	push	ebp
	mov	ebp, esp
	sub	esp, 16					; 00000010H
	mov	DWORD PTR _this$[ebp], ecx
; Line 4681
	mov	ecx, DWORD PTR _this$[ebp]
	call	?_Orphan_all@_Container_base0@std@@QAEXXZ ; std::_Container_base0::_Orphan_all
; Line 4682
	mov	ecx, DWORD PTR _this$[ebp]
	call	?_Large_string_engaged@?$_String_val@U?$_Simple_types@D@std@@@std@@QBE_NXZ ; std::_String_val<std::_Simple_types<char> >::_Large_string_engaged
	movzx	eax, al
	test	eax, eax
	je	SHORT $LN2@Tidy_deall
; Line 4683
	mov	ecx, DWORD PTR _this$[ebp]
	mov	edx, DWORD PTR [ecx]
	mov	DWORD PTR __Ptr$2[ebp], edx
; Line 4684
	mov	ecx, DWORD PTR _this$[ebp]
	call	?_Getal@?$basic_string@DU?$char_traits@D@std@@V?$allocator@D@2@@std@@AAEAAV?$allocator@D@2@XZ ; std::basic_string<char,std::char_traits<char>,std::allocator<char> >::_Getal
	mov	DWORD PTR __Al$1[ebp], eax
; Line 4685
	mov	eax, DWORD PTR _this$[ebp]
	push	eax
	call	??$_Destroy_in_place@PAD@std@@YAXAAPAD@Z ; std::_Destroy_in_place<char *>
	add	esp, 4
; Line 4686
	mov	ecx, DWORD PTR _this$[ebp]
	mov	edx, DWORD PTR [ecx+20]
	add	edx, 1
	push	edx
	mov	eax, DWORD PTR __Ptr$2[ebp]
	push	eax
	mov	ecx, DWORD PTR __Al$1[ebp]
	call	?deallocate@?$allocator@D@std@@QAEXQADI@Z ; std::allocator<char>::deallocate
$LN2@Tidy_deall:
; Line 4697
	mov	ecx, DWORD PTR _this$[ebp]
	mov	DWORD PTR [ecx+16], 0
; Line 4698
	mov	edx, DWORD PTR _this$[ebp]
	mov	DWORD PTR [edx+20], 15			; 0000000fH
; Line 4700
	mov	BYTE PTR $T3[ebp], 0
	lea	eax, DWORD PTR $T3[ebp]
	push	eax
	mov	ecx, 1
	imul	edx, ecx, 0
	add	edx, DWORD PTR _this$[ebp]
	push	edx
	call	?assign@?$_Narrow_char_traits@DH@std@@SAXAADABD@Z ; std::_Narrow_char_traits<char,int>::assign
	add	esp, 8
; Line 4702
	mov	esp, ebp
	pop	ebp
	ret	0
?_Tidy_deallocate@?$basic_string@DU?$char_traits@D@std@@V?$allocator@D@2@@std@@AAEXXZ ENDP ; std::basic_string<char,std::char_traits<char>,std::allocator<char> >::_Tidy_deallocate
_TEXT	ENDS
; Function compile flags: /Odtp
;	COMDAT ?_Tidy_init@?$basic_string@DU?$char_traits@D@std@@V?$allocator@D@2@@std@@AAEXXZ
_TEXT	SEGMENT
_this$ = -12						; size = 4
__My_data$ = -8						; size = 4
$T1 = -1						; size = 1
?_Tidy_init@?$basic_string@DU?$char_traits@D@std@@V?$allocator@D@2@@std@@AAEXXZ PROC ; std::basic_string<char,std::char_traits<char>,std::allocator<char> >::_Tidy_init, COMDAT
; _this$ = ecx
; File C:\Program Files\Microsoft Visual Studio\2022\Preview\VC\Tools\MSVC\14.30.30423\include\xstring
; Line 4658
	push	ebp
	mov	ebp, esp
	sub	esp, 12					; 0000000cH
	mov	DWORD PTR _this$[ebp], ecx
; Line 4659
	mov	eax, DWORD PTR _this$[ebp]
	mov	DWORD PTR __My_data$[ebp], eax
; Line 4660
	mov	ecx, DWORD PTR __My_data$[ebp]
	mov	DWORD PTR [ecx+16], 0
; Line 4674
	mov	edx, DWORD PTR __My_data$[ebp]
	mov	DWORD PTR [edx+20], 15			; 0000000fH
; Line 4676
	mov	BYTE PTR $T1[ebp], 0
	lea	eax, DWORD PTR $T1[ebp]
	push	eax
	mov	ecx, 1
	imul	edx, ecx, 0
	add	edx, DWORD PTR __My_data$[ebp]
	push	edx
	call	?assign@?$_Narrow_char_traits@DH@std@@SAXAADABD@Z ; std::_Narrow_char_traits<char,int>::assign
	add	esp, 8
; Line 4678
	mov	esp, ebp
	pop	ebp
	ret	0
?_Tidy_init@?$basic_string@DU?$char_traits@D@std@@V?$allocator@D@2@@std@@AAEXXZ ENDP ; std::basic_string<char,std::char_traits<char>,std::allocator<char> >::_Tidy_init
_TEXT	ENDS
; Function compile flags: /Odtp
;	COMDAT ?_Calculate_growth@?$basic_string@DU?$char_traits@D@std@@V?$allocator@D@2@@std@@ABEII@Z
_TEXT	SEGMENT
_this$ = -4						; size = 4
__Requested$ = 8					; size = 4
?_Calculate_growth@?$basic_string@DU?$char_traits@D@std@@V?$allocator@D@2@@std@@ABEII@Z PROC ; std::basic_string<char,std::char_traits<char>,std::allocator<char> >::_Calculate_growth, COMDAT
; _this$ = ecx
; File C:\Program Files\Microsoft Visual Studio\2022\Preview\VC\Tools\MSVC\14.30.30423\include\xstring
; Line 4564
	push	ebp
	mov	ebp, esp
	push	ecx
	mov	DWORD PTR _this$[ebp], ecx
; Line 4565
	mov	ecx, DWORD PTR _this$[ebp]
	call	?max_size@?$basic_string@DU?$char_traits@D@std@@V?$allocator@D@2@@std@@QBEIXZ ; std::basic_string<char,std::char_traits<char>,std::allocator<char> >::max_size
	push	eax
	mov	eax, DWORD PTR _this$[ebp]
	mov	ecx, DWORD PTR [eax+20]
	push	ecx
	mov	edx, DWORD PTR __Requested$[ebp]
	push	edx
	call	?_Calculate_growth@?$basic_string@DU?$char_traits@D@std@@V?$allocator@D@2@@std@@CAIIII@Z ; std::basic_string<char,std::char_traits<char>,std::allocator<char> >::_Calculate_growth
	add	esp, 12					; 0000000cH
; Line 4566
	mov	esp, ebp
	pop	ebp
	ret	4
?_Calculate_growth@?$basic_string@DU?$char_traits@D@std@@V?$allocator@D@2@@std@@ABEII@Z ENDP ; std::basic_string<char,std::char_traits<char>,std::allocator<char> >::_Calculate_growth
_TEXT	ENDS
; Function compile flags: /Odtp
;	COMDAT ?_Calculate_growth@?$basic_string@DU?$char_traits@D@std@@V?$allocator@D@2@@std@@CAIIII@Z
_TEXT	SEGMENT
$T1 = -8						; size = 4
__Masked$ = -4						; size = 4
__Requested$ = 8					; size = 4
__Old$ = 12						; size = 4
__Max$ = 16						; size = 4
?_Calculate_growth@?$basic_string@DU?$char_traits@D@std@@V?$allocator@D@2@@std@@CAIIII@Z PROC ; std::basic_string<char,std::char_traits<char>,std::allocator<char> >::_Calculate_growth, COMDAT
; File C:\Program Files\Microsoft Visual Studio\2022\Preview\VC\Tools\MSVC\14.30.30423\include\xstring
; Line 4551
	push	ebp
	mov	ebp, esp
	sub	esp, 8
; Line 4552
	mov	eax, DWORD PTR __Requested$[ebp]
	or	eax, 15					; 0000000fH
	mov	DWORD PTR __Masked$[ebp], eax
; Line 4553
	mov	ecx, DWORD PTR __Masked$[ebp]
	cmp	ecx, DWORD PTR __Max$[ebp]
	jbe	SHORT $LN2@Calculate_
; Line 4554
	mov	eax, DWORD PTR __Max$[ebp]
	jmp	SHORT $LN1@Calculate_
$LN2@Calculate_:
; Line 4557
	mov	edx, DWORD PTR __Old$[ebp]
	shr	edx, 1
	mov	eax, DWORD PTR __Max$[ebp]
	sub	eax, edx
	cmp	DWORD PTR __Old$[ebp], eax
	jbe	SHORT $LN3@Calculate_
; Line 4558
	mov	eax, DWORD PTR __Max$[ebp]
	jmp	SHORT $LN1@Calculate_
$LN3@Calculate_:
; Line 4561
	mov	ecx, DWORD PTR __Old$[ebp]
	shr	ecx, 1
	add	ecx, DWORD PTR __Old$[ebp]
	mov	DWORD PTR $T1[ebp], ecx
	lea	edx, DWORD PTR $T1[ebp]
	push	edx
	lea	eax, DWORD PTR __Masked$[ebp]
	push	eax
	call	??$max@I@std@@YAABIABI0@Z		; std::max<unsigned int>
	add	esp, 8
	mov	eax, DWORD PTR [eax]
$LN1@Calculate_:
; Line 4562
	mov	esp, ebp
	pop	ebp
	ret	0
?_Calculate_growth@?$basic_string@DU?$char_traits@D@std@@V?$allocator@D@2@@std@@CAIIII@Z ENDP ; std::basic_string<char,std::char_traits<char>,std::allocator<char> >::_Calculate_growth
_TEXT	ENDS
; Function compile flags: /Odtp
;	COMDAT ?max_size@?$basic_string@DU?$char_traits@D@std@@V?$allocator@D@2@@std@@QBEIXZ
_TEXT	SEGMENT
$T1 = -24						; size = 4
$T2 = -20						; size = 4
__Storage_max$ = -16					; size = 4
__Alloc_max$ = -12					; size = 4
$T3 = -8						; size = 4
_this$ = -4						; size = 4
?max_size@?$basic_string@DU?$char_traits@D@std@@V?$allocator@D@2@@std@@QBEIXZ PROC ; std::basic_string<char,std::char_traits<char>,std::allocator<char> >::max_size, COMDAT
; _this$ = ecx
; File C:\Program Files\Microsoft Visual Studio\2022\Preview\VC\Tools\MSVC\14.30.30423\include\xstring
; Line 3993
	push	ebp
	mov	ebp, esp
	sub	esp, 24					; 00000018H
	mov	DWORD PTR _this$[ebp], ecx
; Line 3994
	mov	ecx, DWORD PTR _this$[ebp]
	call	?_Getal@?$basic_string@DU?$char_traits@D@std@@V?$allocator@D@2@@std@@ABEABV?$allocator@D@2@XZ ; std::basic_string<char,std::char_traits<char>,std::allocator<char> >::_Getal
	push	eax
	call	?max_size@?$_Default_allocator_traits@V?$allocator@D@std@@@std@@SAIABV?$allocator@D@2@@Z ; std::_Default_allocator_traits<std::allocator<char> >::max_size
	add	esp, 4
	mov	DWORD PTR __Alloc_max$[ebp], eax
; Line 3995
	mov	DWORD PTR $T3[ebp], 16			; 00000010H
	lea	eax, DWORD PTR $T3[ebp]
	push	eax
	lea	ecx, DWORD PTR __Alloc_max$[ebp]
	push	ecx
	call	??$max@I@std@@YAABIABI0@Z		; std::max<unsigned int>
	add	esp, 8
	mov	edx, DWORD PTR [eax]
	mov	DWORD PTR __Storage_max$[ebp], edx
; Line 3997
	mov	eax, DWORD PTR __Storage_max$[ebp]
	sub	eax, 1
	mov	DWORD PTR $T2[ebp], eax
	call	?max@?$numeric_limits@H@std@@SAHXZ	; std::numeric_limits<int>::max
	mov	DWORD PTR $T1[ebp], eax
	lea	ecx, DWORD PTR $T2[ebp]
	push	ecx
	lea	edx, DWORD PTR $T1[ebp]
	push	edx
	call	??$min@I@std@@YAABIABI0@Z		; std::min<unsigned int>
	add	esp, 8
	mov	eax, DWORD PTR [eax]
; Line 4000
	mov	esp, ebp
	pop	ebp
	ret	0
?max_size@?$basic_string@DU?$char_traits@D@std@@V?$allocator@D@2@@std@@QBEIXZ ENDP ; std::basic_string<char,std::char_traits<char>,std::allocator<char> >::max_size
_TEXT	ENDS
; Function compile flags: /Odtp
;	COMDAT ?size@?$basic_string@DU?$char_traits@D@std@@V?$allocator@D@2@@std@@QBEIXZ
_TEXT	SEGMENT
_this$ = -4						; size = 4
?size@?$basic_string@DU?$char_traits@D@std@@V?$allocator@D@2@@std@@QBEIXZ PROC ; std::basic_string<char,std::char_traits<char>,std::allocator<char> >::size, COMDAT
; _this$ = ecx
; File C:\Program Files\Microsoft Visual Studio\2022\Preview\VC\Tools\MSVC\14.30.30423\include\xstring
; Line 3989
	push	ebp
	mov	ebp, esp
	push	ecx
	mov	DWORD PTR _this$[ebp], ecx
; Line 3990
	mov	eax, DWORD PTR _this$[ebp]
	mov	eax, DWORD PTR [eax+16]
; Line 3991
	mov	esp, ebp
	pop	ebp
	ret	0
?size@?$basic_string@DU?$char_traits@D@std@@V?$allocator@D@2@@std@@QBEIXZ ENDP ; std::basic_string<char,std::char_traits<char>,std::allocator<char> >::size
_TEXT	ENDS
; Function compile flags: /Odtp
;	COMDAT ?c_str@?$basic_string@DU?$char_traits@D@std@@V?$allocator@D@2@@std@@QBEPBDXZ
_TEXT	SEGMENT
_this$ = -4						; size = 4
?c_str@?$basic_string@DU?$char_traits@D@std@@V?$allocator@D@2@@std@@QBEPBDXZ PROC ; std::basic_string<char,std::char_traits<char>,std::allocator<char> >::c_str, COMDAT
; _this$ = ecx
; File C:\Program Files\Microsoft Visual Studio\2022\Preview\VC\Tools\MSVC\14.30.30423\include\xstring
; Line 3971
	push	ebp
	mov	ebp, esp
	push	ecx
	mov	DWORD PTR _this$[ebp], ecx
; Line 3972
	mov	ecx, DWORD PTR _this$[ebp]
	call	?_Myptr@?$_String_val@U?$_Simple_types@D@std@@@std@@QBEPBDXZ ; std::_String_val<std::_Simple_types<char> >::_Myptr
; Line 3973
	mov	esp, ebp
	pop	ebp
	ret	0
?c_str@?$basic_string@DU?$char_traits@D@std@@V?$allocator@D@2@@std@@QBEPBDXZ ENDP ; std::basic_string<char,std::char_traits<char>,std::allocator<char> >::c_str
_TEXT	ENDS
; Function compile flags: /Odtp
;	COMDAT ?assign@?$basic_string@DU?$char_traits@D@std@@V?$allocator@D@2@@std@@QAEAAV12@QBD@Z
_TEXT	SEGMENT
_this$ = -4						; size = 4
__Ptr$ = 8						; size = 4
?assign@?$basic_string@DU?$char_traits@D@std@@V?$allocator@D@2@@std@@QAEAAV12@QBD@Z PROC ; std::basic_string<char,std::char_traits<char>,std::allocator<char> >::assign, COMDAT
; _this$ = ecx
; File C:\Program Files\Microsoft Visual Studio\2022\Preview\VC\Tools\MSVC\14.30.30423\include\xstring
; Line 3313
	push	ebp
	mov	ebp, esp
	push	ecx
	mov	DWORD PTR _this$[ebp], ecx
; Line 3314
	mov	eax, DWORD PTR __Ptr$[ebp]
	push	eax
	call	?length@?$_Narrow_char_traits@DH@std@@SAIQBD@Z ; std::_Narrow_char_traits<char,int>::length
	add	esp, 4
	push	eax
	call	??$_Convert_size@I@std@@YAII@Z		; std::_Convert_size<unsigned int>
	add	esp, 4
	push	eax
	mov	ecx, DWORD PTR __Ptr$[ebp]
	push	ecx
	mov	ecx, DWORD PTR _this$[ebp]
	call	?assign@?$basic_string@DU?$char_traits@D@std@@V?$allocator@D@2@@std@@QAEAAV12@QBDI@Z ; std::basic_string<char,std::char_traits<char>,std::allocator<char> >::assign
; Line 3315
	mov	esp, ebp
	pop	ebp
	ret	4
?assign@?$basic_string@DU?$char_traits@D@std@@V?$allocator@D@2@@std@@QAEAAV12@QBD@Z ENDP ; std::basic_string<char,std::char_traits<char>,std::allocator<char> >::assign
_TEXT	ENDS
; Function compile flags: /Odtp
;	COMDAT ?assign@?$basic_string@DU?$char_traits@D@std@@V?$allocator@D@2@@std@@QAEAAV12@QBDI@Z
_TEXT	SEGMENT
__Old_ptr$1 = -12					; size = 4
_this$ = -8						; size = 4
$T2 = -2						; size = 1
$T3 = -1						; size = 1
__Ptr$ = 8						; size = 4
__Count$ = 12						; size = 4
?assign@?$basic_string@DU?$char_traits@D@std@@V?$allocator@D@2@@std@@QAEAAV12@QBDI@Z PROC ; std::basic_string<char,std::char_traits<char>,std::allocator<char> >::assign, COMDAT
; _this$ = ecx
; File C:\Program Files\Microsoft Visual Studio\2022\Preview\VC\Tools\MSVC\14.30.30423\include\xstring
; Line 3294
	push	ebp
	mov	ebp, esp
	sub	esp, 12					; 0000000cH
	mov	DWORD PTR _this$[ebp], ecx
; Line 3296
	mov	eax, DWORD PTR _this$[ebp]
	mov	ecx, DWORD PTR __Count$[ebp]
	cmp	ecx, DWORD PTR [eax+20]
	ja	SHORT $LN2@assign
; Line 3297
	mov	ecx, DWORD PTR _this$[ebp]
	call	?_Myptr@?$_String_val@U?$_Simple_types@D@std@@@std@@QAEPADXZ ; std::_String_val<std::_Simple_types<char> >::_Myptr
	mov	DWORD PTR __Old_ptr$1[ebp], eax
; Line 3298
	mov	edx, DWORD PTR _this$[ebp]
	mov	eax, DWORD PTR __Count$[ebp]
	mov	DWORD PTR [edx+16], eax
; Line 3299
	mov	ecx, DWORD PTR __Count$[ebp]
	push	ecx
	mov	edx, DWORD PTR __Ptr$[ebp]
	push	edx
	mov	eax, DWORD PTR __Old_ptr$1[ebp]
	push	eax
	call	?move@?$_Char_traits@DH@std@@SAPADQADQBDI@Z ; std::_Char_traits<char,int>::move
	add	esp, 12					; 0000000cH
; Line 3300
	mov	BYTE PTR $T3[ebp], 0
	lea	ecx, DWORD PTR $T3[ebp]
	push	ecx
	mov	edx, DWORD PTR __Old_ptr$1[ebp]
	add	edx, DWORD PTR __Count$[ebp]
	push	edx
	call	?assign@?$_Narrow_char_traits@DH@std@@SAXAADABD@Z ; std::_Narrow_char_traits<char,int>::assign
	add	esp, 8
; Line 3301
	mov	eax, DWORD PTR _this$[ebp]
	jmp	SHORT $LN1@assign
$LN2@assign:
; Line 3304
	xor	eax, eax
	mov	BYTE PTR $T2[ebp], al
	mov	ecx, DWORD PTR __Ptr$[ebp]
	push	ecx
	movzx	edx, BYTE PTR $T2[ebp]
	push	edx
	mov	eax, DWORD PTR __Count$[ebp]
	push	eax
	mov	ecx, DWORD PTR _this$[ebp]
	call	??$_Reallocate_for@V<lambda_9366063389c5f42a00a5088cf24e69de>@@PBD@?$basic_string@DU?$char_traits@D@std@@V?$allocator@D@2@@std@@AAEAAV01@IV<lambda_9366063389c5f42a00a5088cf24e69de>@@PBD@Z ; std::basic_string<char,std::char_traits<char>,std::allocator<char> >::_Reallocate_for<<lambda_9366063389c5f42a00a5088cf24e69de>,char const *>
$LN1@assign:
; Line 3311
	mov	esp, ebp
	pop	ebp
	ret	8
?assign@?$basic_string@DU?$char_traits@D@std@@V?$allocator@D@2@@std@@QAEAAV12@QBDI@Z ENDP ; std::basic_string<char,std::char_traits<char>,std::allocator<char> >::assign
_TEXT	ENDS
; Function compile flags: /Odtp
;	COMDAT ??1?$basic_string@DU?$char_traits@D@std@@V?$allocator@D@2@@std@@QAE@XZ
_TEXT	SEGMENT
_this$ = -4						; size = 4
??1?$basic_string@DU?$char_traits@D@std@@V?$allocator@D@2@@std@@QAE@XZ PROC ; std::basic_string<char,std::char_traits<char>,std::allocator<char> >::~basic_string<char,std::char_traits<char>,std::allocator<char> >, COMDAT
; _this$ = ecx
; File C:\Program Files\Microsoft Visual Studio\2022\Preview\VC\Tools\MSVC\14.30.30423\include\xstring
; Line 3048
	push	ebp
	mov	ebp, esp
	push	ecx
	mov	DWORD PTR _this$[ebp], ecx
; Line 3049
	mov	ecx, DWORD PTR _this$[ebp]
	call	?_Tidy_deallocate@?$basic_string@DU?$char_traits@D@std@@V?$allocator@D@2@@std@@AAEXXZ ; std::basic_string<char,std::char_traits<char>,std::allocator<char> >::_Tidy_deallocate
; Line 3056
	mov	ecx, DWORD PTR _this$[ebp]
	call	??1?$_Compressed_pair@V?$allocator@D@std@@V?$_String_val@U?$_Simple_types@D@std@@@2@$00@std@@QAE@XZ
	mov	esp, ebp
	pop	ebp
	ret	0
??1?$basic_string@DU?$char_traits@D@std@@V?$allocator@D@2@@std@@QAE@XZ ENDP ; std::basic_string<char,std::char_traits<char>,std::allocator<char> >::~basic_string<char,std::char_traits<char>,std::allocator<char> >
_TEXT	ENDS
; Function compile flags: /Odtp
;	COMDAT ?_Take_contents@?$basic_string@DU?$char_traits@D@std@@V?$allocator@D@2@@std@@AAEXAAV12@@Z
_TEXT	SEGMENT
_this$ = -12						; size = 4
__My_data$ = -8						; size = 4
__Right_data$ = -4					; size = 4
__Right$ = 8						; size = 4
?_Take_contents@?$basic_string@DU?$char_traits@D@std@@V?$allocator@D@2@@std@@AAEXAAV12@@Z PROC ; std::basic_string<char,std::char_traits<char>,std::allocator<char> >::_Take_contents, COMDAT
; _this$ = ecx
; File C:\Program Files\Microsoft Visual Studio\2022\Preview\VC\Tools\MSVC\14.30.30423\include\xstring
; Line 2918
	push	ebp
	mov	ebp, esp
	sub	esp, 12					; 0000000cH
	mov	DWORD PTR _this$[ebp], ecx
; Line 2924
	mov	eax, DWORD PTR _this$[ebp]
	mov	DWORD PTR __My_data$[ebp], eax
; Line 2925
	mov	ecx, DWORD PTR __Right$[ebp]
	mov	DWORD PTR __Right_data$[ebp], ecx
; Line 2941
	mov	edx, DWORD PTR __Right$[ebp]
	push	edx
	mov	ecx, DWORD PTR _this$[ebp]
	call	?_Memcpy_val_from@?$basic_string@DU?$char_traits@D@std@@V?$allocator@D@2@@std@@AAEXABV12@@Z ; std::basic_string<char,std::char_traits<char>,std::allocator<char> >::_Memcpy_val_from
; Line 2942
	mov	ecx, DWORD PTR __Right$[ebp]
	call	?_Tidy_init@?$basic_string@DU?$char_traits@D@std@@V?$allocator@D@2@@std@@AAEXXZ ; std::basic_string<char,std::char_traits<char>,std::allocator<char> >::_Tidy_init
; Line 2943
	jmp	SHORT $LN1@Take_conte
; Line 2947
	mov	ecx, DWORD PTR __Right_data$[ebp]
	call	?_Large_string_engaged@?$_String_val@U?$_Simple_types@D@std@@@std@@QBE_NXZ ; std::_String_val<std::_Simple_types<char> >::_Large_string_engaged
	movzx	eax, al
	test	eax, eax
	je	SHORT $LN2@Take_conte
; Line 2948
	mov	ecx, DWORD PTR __Right_data$[ebp]
	push	ecx
	mov	edx, DWORD PTR __My_data$[ebp]
	push	edx
	call	??$_Construct_in_place@PADAAPAD@std@@YAXAAPAD0@Z ; std::_Construct_in_place<char *,char * &>
	add	esp, 8
; Line 2949
	mov	eax, DWORD PTR __Right_data$[ebp]
	mov	DWORD PTR [eax], 0
; Line 2950
	mov	ecx, DWORD PTR __Right$[ebp]
	push	ecx
	mov	ecx, DWORD PTR _this$[ebp]
	call	?_Swap_proxy_and_iterators@?$basic_string@DU?$char_traits@D@std@@V?$allocator@D@2@@std@@AAEXAAV12@@Z ; std::basic_string<char,std::char_traits<char>,std::allocator<char> >::_Swap_proxy_and_iterators
; Line 2951
	jmp	SHORT $LN3@Take_conte
$LN2@Take_conte:
; Line 2952
	mov	edx, DWORD PTR __Right_data$[ebp]
	mov	eax, DWORD PTR [edx+16]
	add	eax, 1
	push	eax
	mov	ecx, DWORD PTR __Right_data$[ebp]
	push	ecx
	mov	edx, DWORD PTR __My_data$[ebp]
	push	edx
	call	?copy@?$_Char_traits@DH@std@@SAPADQADQBDI@Z ; std::_Char_traits<char,int>::copy
	add	esp, 12					; 0000000cH
; Line 2953
	mov	ecx, DWORD PTR __Right_data$[ebp]
	call	?_Orphan_all@_Container_base0@std@@QAEXXZ ; std::_Container_base0::_Orphan_all
$LN3@Take_conte:
; Line 2956
	mov	eax, DWORD PTR __My_data$[ebp]
	mov	ecx, DWORD PTR __Right_data$[ebp]
	mov	edx, DWORD PTR [ecx+16]
	mov	DWORD PTR [eax+16], edx
; Line 2957
	mov	eax, DWORD PTR __My_data$[ebp]
	mov	ecx, DWORD PTR __Right_data$[ebp]
	mov	edx, DWORD PTR [ecx+20]
	mov	DWORD PTR [eax+20], edx
; Line 2958
	mov	ecx, DWORD PTR __Right$[ebp]
	call	?_Tidy_init@?$basic_string@DU?$char_traits@D@std@@V?$allocator@D@2@@std@@AAEXXZ ; std::basic_string<char,std::char_traits<char>,std::allocator<char> >::_Tidy_init
$LN1@Take_conte:
; Line 2959
	mov	esp, ebp
	pop	ebp
	ret	4
?_Take_contents@?$basic_string@DU?$char_traits@D@std@@V?$allocator@D@2@@std@@AAEXAAV12@@Z ENDP ; std::basic_string<char,std::char_traits<char>,std::allocator<char> >::_Take_contents
_TEXT	ENDS
; Function compile flags: /Odtp
;	COMDAT ?_Memcpy_val_from@?$basic_string@DU?$char_traits@D@std@@V?$allocator@D@2@@std@@AAEXABV12@@Z
_TEXT	SEGMENT
__My_data_mem$ = -12					; size = 4
__Right_data_mem$ = -8					; size = 4
_this$ = -4						; size = 4
__Right$ = 8						; size = 4
?_Memcpy_val_from@?$basic_string@DU?$char_traits@D@std@@V?$allocator@D@2@@std@@AAEXABV12@@Z PROC ; std::basic_string<char,std::char_traits<char>,std::allocator<char> >::_Memcpy_val_from, COMDAT
; _this$ = ecx
; File C:\Program Files\Microsoft Visual Studio\2022\Preview\VC\Tools\MSVC\14.30.30423\include\xstring
; Line 2909
	push	ebp
	mov	ebp, esp
	sub	esp, 12					; 0000000cH
	mov	DWORD PTR _this$[ebp], ecx
; Line 2911
	mov	eax, DWORD PTR _this$[ebp]
	push	eax
	call	??$addressof@V?$_String_val@U?$_Simple_types@D@std@@@std@@@std@@YAPAV?$_String_val@U?$_Simple_types@D@std@@@0@AAV10@@Z ; std::addressof<std::_String_val<std::_Simple_types<char> > >
	add	esp, 4
	mov	DWORD PTR __My_data_mem$[ebp], eax
; Line 2913
	mov	ecx, DWORD PTR __Right$[ebp]
	push	ecx
	call	??$addressof@$$CBV?$_String_val@U?$_Simple_types@D@std@@@std@@@std@@YAPBV?$_String_val@U?$_Simple_types@D@std@@@0@ABV10@@Z ; std::addressof<std::_String_val<std::_Simple_types<char> > const >
	add	esp, 4
	mov	DWORD PTR __Right_data_mem$[ebp], eax
; Line 2915
	push	24					; 00000018H
	mov	edx, DWORD PTR __Right_data_mem$[ebp]
	push	edx
	mov	eax, DWORD PTR __My_data_mem$[ebp]
	push	eax
	call	_memcpy
	add	esp, 12					; 0000000cH
; Line 2916
	mov	esp, ebp
	pop	ebp
	ret	4
?_Memcpy_val_from@?$basic_string@DU?$char_traits@D@std@@V?$allocator@D@2@@std@@AAEXABV12@@Z ENDP ; std::basic_string<char,std::char_traits<char>,std::allocator<char> >::_Memcpy_val_from
_TEXT	ENDS
; Function compile flags: /Odtp
;	COMDAT ??0?$basic_string@DU?$char_traits@D@std@@V?$allocator@D@2@@std@@QAE@U_String_constructor_concat_tag@1@ABV01@QBDI2I@Z
_TEXT	SEGMENT
__Requested_size$1 = -40				; size = 4
__Alproxy$ = -36					; size = 4
__Fancyptr$2 = -32					; size = 4
__New_size$ = -28					; size = 4
__Ptr$ = -24						; size = 4
__New_capacity$ = -20					; size = 4
_this$ = -16						; size = 4
__My_data$ = -12					; size = 4
$T3 = -6						; size = 1
$T4 = -5						; size = 1
__Proxy$ = -4						; size = 1
$T5 = -3						; size = 1
__Activate_large_mode$ = -2				; size = 1
tv89 = -1						; size = 1
___formal$ = 8						; size = 1
__Source_of_al$ = 12					; size = 4
__Left_ptr$ = 16					; size = 4
__Left_size$ = 20					; size = 4
__Right_ptr$ = 24					; size = 4
__Right_size$ = 28					; size = 4
??0?$basic_string@DU?$char_traits@D@std@@V?$allocator@D@2@@std@@QAE@U_String_constructor_concat_tag@1@ABV01@QBDI2I@Z PROC ; std::basic_string<char,std::char_traits<char>,std::allocator<char> >::basic_string<char,std::char_traits<char>,std::allocator<char> >, COMDAT
; _this$ = ecx
; File C:\Program Files\Microsoft Visual Studio\2022\Preview\VC\Tools\MSVC\14.30.30423\include\xstring
; Line 2677
	push	ebp
	mov	ebp, esp
	sub	esp, 40					; 00000028H
	mov	DWORD PTR _this$[ebp], ecx
; Line 2676
	mov	ecx, DWORD PTR __Source_of_al$[ebp]
	call	?_Getal@?$basic_string@DU?$char_traits@D@std@@V?$allocator@D@2@@std@@ABEABV?$allocator@D@2@XZ ; std::basic_string<char,std::char_traits<char>,std::allocator<char> >::_Getal
	push	eax
	lea	eax, DWORD PTR $T4[ebp]
	push	eax
	call	?select_on_container_copy_construction@?$_Default_allocator_traits@V?$allocator@D@std@@@std@@SA?AV?$allocator@D@2@ABV32@@Z ; std::_Default_allocator_traits<std::allocator<char> >::select_on_container_copy_construction
	add	esp, 8
	push	eax
	movzx	ecx, BYTE PTR $T3[ebp]
	push	ecx
	mov	ecx, DWORD PTR _this$[ebp]
	call	??$?0V?$allocator@D@std@@$$V@?$_Compressed_pair@V?$allocator@D@std@@V?$_String_val@U?$_Simple_types@D@std@@@2@$00@std@@QAE@U_One_then_variadic_args_t@1@$$QAV?$allocator@D@1@@Z ; std::_Compressed_pair<std::allocator<char>,std::_String_val<std::_Simple_types<char> >,1>::_Compressed_pair<std::allocator<char>,std::_String_val<std::_Simple_types<char> >,1><std::allocator<char> >
; Line 2681
	mov	edx, DWORD PTR __Left_size$[ebp]
	add	edx, DWORD PTR __Right_size$[ebp]
	mov	DWORD PTR __New_size$[ebp], edx
; Line 2682
	mov	DWORD PTR __New_capacity$[ebp], 15	; 0000000fH
; Line 2683
	mov	eax, DWORD PTR _this$[ebp]
	mov	DWORD PTR __My_data$[ebp], eax
; Line 2684
	mov	ecx, DWORD PTR __My_data$[ebp]
	mov	DWORD PTR __Ptr$[ebp], ecx
; Line 2685
	mov	DWORD PTR __Alproxy$[ebp], OFFSET ?_Fake_alloc@std@@3U_Fake_allocator@1@B
; Line 2686
	mov	edx, DWORD PTR __My_data$[ebp]
	push	edx
	mov	eax, DWORD PTR __Alproxy$[ebp]
	push	eax
	lea	ecx, DWORD PTR __Proxy$[ebp]
	call	??0_Fake_proxy_ptr_impl@std@@QAE@ABU_Fake_allocator@1@ABU_Container_base0@1@@Z ; std::_Fake_proxy_ptr_impl::_Fake_proxy_ptr_impl
; Line 2691
	mov	ecx, DWORD PTR __New_capacity$[ebp]
	cmp	ecx, DWORD PTR __New_size$[ebp]
	jae	SHORT $LN4@basic_stri
	mov	BYTE PTR tv89[ebp], 1
	jmp	SHORT $LN5@basic_stri
$LN4@basic_stri:
	mov	BYTE PTR tv89[ebp], 0
$LN5@basic_stri:
	mov	dl, BYTE PTR tv89[ebp]
	mov	BYTE PTR __Activate_large_mode$[ebp], dl
; Line 2694
	movzx	eax, BYTE PTR __Activate_large_mode$[ebp]
	test	eax, eax
	je	SHORT $LN2@basic_stri
; Line 2696
	push	OFFSET ?_BUF_SIZE@?$basic_string@DU?$char_traits@D@std@@V?$allocator@D@2@@std@@0IB
	lea	ecx, DWORD PTR __New_size$[ebp]
	push	ecx
	call	??$max@I@std@@YAABIABI0@Z		; std::max<unsigned int>
	add	esp, 8
	mov	edx, DWORD PTR [eax]
	mov	DWORD PTR __Requested_size$1[ebp], edx
; Line 2697
	mov	ecx, DWORD PTR _this$[ebp]
	call	?max_size@?$basic_string@DU?$char_traits@D@std@@V?$allocator@D@2@@std@@QBEIXZ ; std::basic_string<char,std::char_traits<char>,std::allocator<char> >::max_size
	push	eax
	push	15					; 0000000fH
	mov	eax, DWORD PTR __Requested_size$1[ebp]
	push	eax
	call	?_Calculate_growth@?$basic_string@DU?$char_traits@D@std@@V?$allocator@D@2@@std@@CAIIII@Z ; std::basic_string<char,std::char_traits<char>,std::allocator<char> >::_Calculate_growth
	add	esp, 12					; 0000000cH
	mov	DWORD PTR __New_capacity$[ebp], eax
; Line 2698
	mov	ecx, DWORD PTR __New_capacity$[ebp]
	add	ecx, 1
	push	ecx
	mov	ecx, DWORD PTR _this$[ebp]
	call	?_Getal@?$basic_string@DU?$char_traits@D@std@@V?$allocator@D@2@@std@@AAEAAV?$allocator@D@2@XZ ; std::basic_string<char,std::char_traits<char>,std::allocator<char> >::_Getal
	mov	ecx, eax
	call	?allocate@?$allocator@D@std@@QAEPADI@Z	; std::allocator<char>::allocate
	mov	DWORD PTR __Fancyptr$2[ebp], eax
; Line 2699
	mov	edx, DWORD PTR __Fancyptr$2[ebp]
	push	edx
	call	??$_Unfancy@D@std@@YAPADPAD@Z		; std::_Unfancy<char>
	add	esp, 4
	mov	DWORD PTR __Ptr$[ebp], eax
; Line 2700
	lea	eax, DWORD PTR __Fancyptr$2[ebp]
	push	eax
	mov	ecx, DWORD PTR __My_data$[ebp]
	push	ecx
	call	??$_Construct_in_place@PADABQAD@std@@YAXAAPADABQAD@Z ; std::_Construct_in_place<char *,char * const &>
	add	esp, 8
$LN2@basic_stri:
; Line 2709
	mov	edx, DWORD PTR __My_data$[ebp]
	mov	eax, DWORD PTR __New_size$[ebp]
	mov	DWORD PTR [edx+16], eax
; Line 2710
	mov	ecx, DWORD PTR __My_data$[ebp]
	mov	edx, DWORD PTR __New_capacity$[ebp]
	mov	DWORD PTR [ecx+20], edx
; Line 2711
	mov	eax, DWORD PTR __Left_size$[ebp]
	push	eax
	mov	ecx, DWORD PTR __Left_ptr$[ebp]
	push	ecx
	mov	edx, DWORD PTR __Ptr$[ebp]
	push	edx
	call	?copy@?$_Char_traits@DH@std@@SAPADQADQBDI@Z ; std::_Char_traits<char,int>::copy
	add	esp, 12					; 0000000cH
; Line 2712
	mov	eax, DWORD PTR __Right_size$[ebp]
	push	eax
	mov	ecx, DWORD PTR __Right_ptr$[ebp]
	push	ecx
	mov	edx, DWORD PTR __Ptr$[ebp]
	add	edx, DWORD PTR __Left_size$[ebp]
	push	edx
	call	?copy@?$_Char_traits@DH@std@@SAPADQADQBDI@Z ; std::_Char_traits<char,int>::copy
	add	esp, 12					; 0000000cH
; Line 2713
	mov	BYTE PTR $T5[ebp], 0
	lea	eax, DWORD PTR $T5[ebp]
	push	eax
	mov	ecx, DWORD PTR __Ptr$[ebp]
	add	ecx, DWORD PTR __New_size$[ebp]
	push	ecx
	call	?assign@?$_Narrow_char_traits@DH@std@@SAXAADABD@Z ; std::_Narrow_char_traits<char,int>::assign
	add	esp, 8
; Line 2714
	lea	ecx, DWORD PTR __Proxy$[ebp]
	call	?_Release@_Fake_proxy_ptr_impl@std@@QAEXXZ ; std::_Fake_proxy_ptr_impl::_Release
; Line 2715
	mov	eax, DWORD PTR _this$[ebp]
	mov	esp, ebp
	pop	ebp
	ret	24					; 00000018H
??0?$basic_string@DU?$char_traits@D@std@@V?$allocator@D@2@@std@@QAE@U_String_constructor_concat_tag@1@ABV01@QBDI2I@Z ENDP ; std::basic_string<char,std::char_traits<char>,std::allocator<char> >::basic_string<char,std::char_traits<char>,std::allocator<char> >
_TEXT	ENDS
; Function compile flags: /Odtp
;	COMDAT ??0?$basic_string@DU?$char_traits@D@std@@V?$allocator@D@2@@std@@QAE@$$QAV01@@Z
_TEXT	SEGMENT
_this$ = -8						; size = 4
$T1 = -1						; size = 1
__Right$ = 8						; size = 4
??0?$basic_string@DU?$char_traits@D@std@@V?$allocator@D@2@@std@@QAE@$$QAV01@@Z PROC ; std::basic_string<char,std::char_traits<char>,std::allocator<char> >::basic_string<char,std::char_traits<char>,std::allocator<char> >, COMDAT
; _this$ = ecx
; File C:\Program Files\Microsoft Visual Studio\2022\Preview\VC\Tools\MSVC\14.30.30423\include\xstring
; Line 2651
	push	ebp
	mov	ebp, esp
	sub	esp, 8
	mov	DWORD PTR _this$[ebp], ecx
	mov	ecx, DWORD PTR __Right$[ebp]
	call	?_Getal@?$basic_string@DU?$char_traits@D@std@@V?$allocator@D@2@@std@@AAEAAV?$allocator@D@2@XZ ; std::basic_string<char,std::char_traits<char>,std::allocator<char> >::_Getal
	push	eax
	call	??$move@AAV?$allocator@D@std@@@std@@YA$$QAV?$allocator@D@0@AAV10@@Z ; std::move<std::allocator<char> &>
	add	esp, 4
	push	eax
	movzx	eax, BYTE PTR $T1[ebp]
	push	eax
	mov	ecx, DWORD PTR _this$[ebp]
	call	??$?0V?$allocator@D@std@@$$V@?$_Compressed_pair@V?$allocator@D@std@@V?$_String_val@U?$_Simple_types@D@std@@@2@$00@std@@QAE@U_One_then_variadic_args_t@1@$$QAV?$allocator@D@1@@Z ; std::_Compressed_pair<std::allocator<char>,std::_String_val<std::_Simple_types<char> >,1>::_Compressed_pair<std::allocator<char>,std::_String_val<std::_Simple_types<char> >,1><std::allocator<char> >
; Line 2652
	push	OFFSET ?_Fake_alloc@std@@3U_Fake_allocator@1@B
	mov	ecx, DWORD PTR _this$[ebp]
	call	?_Alloc_proxy@_Container_base0@std@@QAEXABU_Fake_allocator@2@@Z ; std::_Container_base0::_Alloc_proxy
; Line 2653
	mov	ecx, DWORD PTR __Right$[ebp]
	push	ecx
	mov	ecx, DWORD PTR _this$[ebp]
	call	?_Take_contents@?$basic_string@DU?$char_traits@D@std@@V?$allocator@D@2@@std@@AAEXAAV12@@Z ; std::basic_string<char,std::char_traits<char>,std::allocator<char> >::_Take_contents
; Line 2654
	mov	eax, DWORD PTR _this$[ebp]
	mov	esp, ebp
	pop	ebp
	ret	4
??0?$basic_string@DU?$char_traits@D@std@@V?$allocator@D@2@@std@@QAE@$$QAV01@@Z ENDP ; std::basic_string<char,std::char_traits<char>,std::allocator<char> >::basic_string<char,std::char_traits<char>,std::allocator<char> >
_TEXT	ENDS
; Function compile flags: /Odtp
;	COMDAT ??0?$basic_string@DU?$char_traits@D@std@@V?$allocator@D@2@@std@@QAE@QBD@Z
_TEXT	SEGMENT
__Alproxy$ = -12					; size = 4
_this$ = -8						; size = 4
$T1 = -2						; size = 1
__Proxy$ = -1						; size = 1
__Ptr$ = 8						; size = 4
??0?$basic_string@DU?$char_traits@D@std@@V?$allocator@D@2@@std@@QAE@QBD@Z PROC ; std::basic_string<char,std::char_traits<char>,std::allocator<char> >::basic_string<char,std::char_traits<char>,std::allocator<char> >, COMDAT
; _this$ = ecx
; File C:\Program Files\Microsoft Visual Studio\2022\Preview\VC\Tools\MSVC\14.30.30423\include\xstring
; Line 2559
	push	ebp
	mov	ebp, esp
	sub	esp, 12					; 0000000cH
	mov	DWORD PTR _this$[ebp], ecx
	movzx	eax, BYTE PTR $T1[ebp]
	push	eax
	mov	ecx, DWORD PTR _this$[ebp]
	call	??$?0$$V@?$_Compressed_pair@V?$allocator@D@std@@V?$_String_val@U?$_Simple_types@D@std@@@2@$00@std@@QAE@U_Zero_then_variadic_args_t@1@@Z ; std::_Compressed_pair<std::allocator<char>,std::_String_val<std::_Simple_types<char> >,1>::_Compressed_pair<std::allocator<char>,std::_String_val<std::_Simple_types<char> >,1><>
; Line 2560
	mov	DWORD PTR __Alproxy$[ebp], OFFSET ?_Fake_alloc@std@@3U_Fake_allocator@1@B
; Line 2561
	mov	ecx, DWORD PTR _this$[ebp]
	push	ecx
	mov	edx, DWORD PTR __Alproxy$[ebp]
	push	edx
	lea	ecx, DWORD PTR __Proxy$[ebp]
	call	??0_Fake_proxy_ptr_impl@std@@QAE@ABU_Fake_allocator@1@ABU_Container_base0@1@@Z ; std::_Fake_proxy_ptr_impl::_Fake_proxy_ptr_impl
; Line 2562
	mov	ecx, DWORD PTR _this$[ebp]
	call	?_Tidy_init@?$basic_string@DU?$char_traits@D@std@@V?$allocator@D@2@@std@@AAEXXZ ; std::basic_string<char,std::char_traits<char>,std::allocator<char> >::_Tidy_init
; Line 2563
	mov	eax, DWORD PTR __Ptr$[ebp]
	push	eax
	mov	ecx, DWORD PTR _this$[ebp]
	call	?assign@?$basic_string@DU?$char_traits@D@std@@V?$allocator@D@2@@std@@QAEAAV12@QBD@Z ; std::basic_string<char,std::char_traits<char>,std::allocator<char> >::assign
; Line 2564
	lea	ecx, DWORD PTR __Proxy$[ebp]
	call	?_Release@_Fake_proxy_ptr_impl@std@@QAEXXZ ; std::_Fake_proxy_ptr_impl::_Release
; Line 2565
	mov	eax, DWORD PTR _this$[ebp]
	mov	esp, ebp
	pop	ebp
	ret	4
??0?$basic_string@DU?$char_traits@D@std@@V?$allocator@D@2@@std@@QAE@QBD@Z ENDP ; std::basic_string<char,std::char_traits<char>,std::allocator<char> >::basic_string<char,std::char_traits<char>,std::allocator<char> >
_TEXT	ENDS
; Function compile flags: /Odtp
;	COMDAT ??1?$_String_val@U?$_Simple_types@D@std@@@std@@QAE@XZ
_TEXT	SEGMENT
_this$ = -4						; size = 4
??1?$_String_val@U?$_Simple_types@D@std@@@std@@QAE@XZ PROC ; std::_String_val<std::_Simple_types<char> >::~_String_val<std::_Simple_types<char> >, COMDAT
; _this$ = ecx
	push	ebp
	mov	ebp, esp
	push	ecx
	mov	DWORD PTR _this$[ebp], ecx
	mov	ecx, DWORD PTR _this$[ebp]
	call	??1_Bxty@?$_String_val@U?$_Simple_types@D@std@@@std@@QAE@XZ ; std::_String_val<std::_Simple_types<char> >::_Bxty::~_Bxty
	mov	esp, ebp
	pop	ebp
	ret	0
??1?$_String_val@U?$_Simple_types@D@std@@@std@@QAE@XZ ENDP ; std::_String_val<std::_Simple_types<char> >::~_String_val<std::_Simple_types<char> >
_TEXT	ENDS
; Function compile flags: /Odtp
;	COMDAT ??1_Bxty@?$_String_val@U?$_Simple_types@D@std@@@std@@QAE@XZ
_TEXT	SEGMENT
_this$ = -4						; size = 4
??1_Bxty@?$_String_val@U?$_Simple_types@D@std@@@std@@QAE@XZ PROC ; std::_String_val<std::_Simple_types<char> >::_Bxty::~_Bxty, COMDAT
; _this$ = ecx
; File C:\Program Files\Microsoft Visual Studio\2022\Preview\VC\Tools\MSVC\14.30.30423\include\xstring
; Line 2390
	push	ebp
	mov	ebp, esp
	push	ecx
	mov	DWORD PTR _this$[ebp], ecx
	mov	esp, ebp
	pop	ebp
	ret	0
??1_Bxty@?$_String_val@U?$_Simple_types@D@std@@@std@@QAE@XZ ENDP ; std::_String_val<std::_Simple_types<char> >::_Bxty::~_Bxty
_TEXT	ENDS
; Function compile flags: /Odtp
;	COMDAT ??0_Bxty@?$_String_val@U?$_Simple_types@D@std@@@std@@QAE@XZ
_TEXT	SEGMENT
_this$ = -4						; size = 4
??0_Bxty@?$_String_val@U?$_Simple_types@D@std@@@std@@QAE@XZ PROC ; std::_String_val<std::_Simple_types<char> >::_Bxty::_Bxty, COMDAT
; _this$ = ecx
; File C:\Program Files\Microsoft Visual Studio\2022\Preview\VC\Tools\MSVC\14.30.30423\include\xstring
; Line 2388
	push	ebp
	mov	ebp, esp
	push	ecx
	mov	DWORD PTR _this$[ebp], ecx
	mov	eax, DWORD PTR _this$[ebp]
	mov	DWORD PTR [eax], 0
	mov	eax, DWORD PTR _this$[ebp]
	mov	esp, ebp
	pop	ebp
	ret	0
??0_Bxty@?$_String_val@U?$_Simple_types@D@std@@@std@@QAE@XZ ENDP ; std::_String_val<std::_Simple_types<char> >::_Bxty::_Bxty
_TEXT	ENDS
; Function compile flags: /Odtp
;	COMDAT ?_Large_string_engaged@?$_String_val@U?$_Simple_types@D@std@@@std@@QBE_NXZ
_TEXT	SEGMENT
_this$ = -8						; size = 4
tv66 = -4						; size = 4
?_Large_string_engaged@?$_String_val@U?$_Simple_types@D@std@@@std@@QBE_NXZ PROC ; std::_String_val<std::_Simple_types<char> >::_Large_string_engaged, COMDAT
; _this$ = ecx
; File C:\Program Files\Microsoft Visual Studio\2022\Preview\VC\Tools\MSVC\14.30.30423\include\xstring
; Line 2355
	push	ebp
	mov	ebp, esp
	sub	esp, 8
	mov	DWORD PTR _this$[ebp], ecx
; Line 2361
	mov	eax, DWORD PTR _this$[ebp]
	cmp	DWORD PTR [eax+20], 16			; 00000010H
	jb	SHORT $LN3@Large_stri
	mov	DWORD PTR tv66[ebp], 1
	jmp	SHORT $LN4@Large_stri
$LN3@Large_stri:
	mov	DWORD PTR tv66[ebp], 0
$LN4@Large_stri:
	mov	al, BYTE PTR tv66[ebp]
; Line 2362
	mov	esp, ebp
	pop	ebp
	ret	0
?_Large_string_engaged@?$_String_val@U?$_Simple_types@D@std@@@std@@QBE_NXZ ENDP ; std::_String_val<std::_Simple_types<char> >::_Large_string_engaged
_TEXT	ENDS
; Function compile flags: /Odtp
;	COMDAT ?_Myptr@?$_String_val@U?$_Simple_types@D@std@@@std@@QBEPBDXZ
_TEXT	SEGMENT
__Result$ = -8						; size = 4
_this$ = -4						; size = 4
?_Myptr@?$_String_val@U?$_Simple_types@D@std@@@std@@QBEPBDXZ PROC ; std::_String_val<std::_Simple_types<char> >::_Myptr, COMDAT
; _this$ = ecx
; File C:\Program Files\Microsoft Visual Studio\2022\Preview\VC\Tools\MSVC\14.30.30423\include\xstring
; Line 2346
	push	ebp
	mov	ebp, esp
	sub	esp, 8
	mov	DWORD PTR _this$[ebp], ecx
; Line 2347
	mov	eax, DWORD PTR _this$[ebp]
	mov	DWORD PTR __Result$[ebp], eax
; Line 2348
	mov	ecx, DWORD PTR _this$[ebp]
	call	?_Large_string_engaged@?$_String_val@U?$_Simple_types@D@std@@@std@@QBE_NXZ ; std::_String_val<std::_Simple_types<char> >::_Large_string_engaged
	movzx	ecx, al
	test	ecx, ecx
	je	SHORT $LN2@Myptr
; Line 2349
	mov	edx, DWORD PTR _this$[ebp]
	mov	eax, DWORD PTR [edx]
	push	eax
	call	??$_Unfancy@D@std@@YAPADPAD@Z		; std::_Unfancy<char>
	add	esp, 4
	mov	DWORD PTR __Result$[ebp], eax
$LN2@Myptr:
; Line 2352
	mov	eax, DWORD PTR __Result$[ebp]
; Line 2353
	mov	esp, ebp
	pop	ebp
	ret	0
?_Myptr@?$_String_val@U?$_Simple_types@D@std@@@std@@QBEPBDXZ ENDP ; std::_String_val<std::_Simple_types<char> >::_Myptr
_TEXT	ENDS
; Function compile flags: /Odtp
;	COMDAT ?_Myptr@?$_String_val@U?$_Simple_types@D@std@@@std@@QAEPADXZ
_TEXT	SEGMENT
__Result$ = -8						; size = 4
_this$ = -4						; size = 4
?_Myptr@?$_String_val@U?$_Simple_types@D@std@@@std@@QAEPADXZ PROC ; std::_String_val<std::_Simple_types<char> >::_Myptr, COMDAT
; _this$ = ecx
; File C:\Program Files\Microsoft Visual Studio\2022\Preview\VC\Tools\MSVC\14.30.30423\include\xstring
; Line 2337
	push	ebp
	mov	ebp, esp
	sub	esp, 8
	mov	DWORD PTR _this$[ebp], ecx
; Line 2338
	mov	eax, DWORD PTR _this$[ebp]
	mov	DWORD PTR __Result$[ebp], eax
; Line 2339
	mov	ecx, DWORD PTR _this$[ebp]
	call	?_Large_string_engaged@?$_String_val@U?$_Simple_types@D@std@@@std@@QBE_NXZ ; std::_String_val<std::_Simple_types<char> >::_Large_string_engaged
	movzx	ecx, al
	test	ecx, ecx
	je	SHORT $LN2@Myptr
; Line 2340
	mov	edx, DWORD PTR _this$[ebp]
	mov	eax, DWORD PTR [edx]
	push	eax
	call	??$_Unfancy@D@std@@YAPADPAD@Z		; std::_Unfancy<char>
	add	esp, 4
	mov	DWORD PTR __Result$[ebp], eax
$LN2@Myptr:
; Line 2343
	mov	eax, DWORD PTR __Result$[ebp]
; Line 2344
	mov	esp, ebp
	pop	ebp
	ret	0
?_Myptr@?$_String_val@U?$_Simple_types@D@std@@@std@@QAEPADXZ ENDP ; std::_String_val<std::_Simple_types<char> >::_Myptr
_TEXT	ENDS
; Function compile flags: /Odtp
;	COMDAT ??0?$_String_val@U?$_Simple_types@D@std@@@std@@QAE@XZ
_TEXT	SEGMENT
_this$ = -4						; size = 4
??0?$_String_val@U?$_Simple_types@D@std@@@std@@QAE@XZ PROC ; std::_String_val<std::_Simple_types<char> >::_String_val<std::_Simple_types<char> >, COMDAT
; _this$ = ecx
; File C:\Program Files\Microsoft Visual Studio\2022\Preview\VC\Tools\MSVC\14.30.30423\include\xstring
; Line 2326
	push	ebp
	mov	ebp, esp
	push	ecx
	mov	DWORD PTR _this$[ebp], ecx
	mov	ecx, DWORD PTR _this$[ebp]
	call	??0_Bxty@?$_String_val@U?$_Simple_types@D@std@@@std@@QAE@XZ ; std::_String_val<std::_Simple_types<char> >::_Bxty::_Bxty
; Line 2397
	mov	eax, DWORD PTR _this$[ebp]
	mov	DWORD PTR [eax+16], 0
; Line 2398
	mov	ecx, DWORD PTR _this$[ebp]
	mov	DWORD PTR [ecx+20], 0
; Line 2326
	mov	eax, DWORD PTR _this$[ebp]
	mov	esp, ebp
	pop	ebp
	ret	0
??0?$_String_val@U?$_Simple_types@D@std@@@std@@QAE@XZ ENDP ; std::_String_val<std::_Simple_types<char> >::_String_val<std::_Simple_types<char> >
_TEXT	ENDS
; Function compile flags: /Odtp
;	COMDAT ?select_on_container_copy_construction@?$_Default_allocator_traits@V?$allocator@D@std@@@std@@SA?AV?$allocator@D@2@ABV32@@Z
_TEXT	SEGMENT
___$ReturnUdt$ = 8					; size = 4
__Al$ = 12						; size = 4
?select_on_container_copy_construction@?$_Default_allocator_traits@V?$allocator@D@std@@@std@@SA?AV?$allocator@D@2@ABV32@@Z PROC ; std::_Default_allocator_traits<std::allocator<char> >::select_on_container_copy_construction, COMDAT
; File C:\Program Files\Microsoft Visual Studio\2022\Preview\VC\Tools\MSVC\14.30.30423\include\xmemory
; Line 731
	push	ebp
	mov	ebp, esp
; Line 732
	mov	eax, DWORD PTR ___$ReturnUdt$[ebp]
; Line 733
	pop	ebp
	ret	0
?select_on_container_copy_construction@?$_Default_allocator_traits@V?$allocator@D@std@@@std@@SA?AV?$allocator@D@2@ABV32@@Z ENDP ; std::_Default_allocator_traits<std::allocator<char> >::select_on_container_copy_construction
_TEXT	ENDS
; Function compile flags: /Odtp
;	COMDAT ?max_size@?$_Default_allocator_traits@V?$allocator@D@std@@@std@@SAIABV?$allocator@D@2@@Z
_TEXT	SEGMENT
___formal$ = 8						; size = 4
?max_size@?$_Default_allocator_traits@V?$allocator@D@std@@@std@@SAIABV?$allocator@D@2@@Z PROC ; std::_Default_allocator_traits<std::allocator<char> >::max_size, COMDAT
; File C:\Program Files\Microsoft Visual Studio\2022\Preview\VC\Tools\MSVC\14.30.30423\include\xmemory
; Line 727
	push	ebp
	mov	ebp, esp
; Line 728
	or	eax, -1
; Line 729
	pop	ebp
	ret	0
?max_size@?$_Default_allocator_traits@V?$allocator@D@std@@@std@@SAIABV?$allocator@D@2@@Z ENDP ; std::_Default_allocator_traits<std::allocator<char> >::max_size
_TEXT	ENDS
; Function compile flags: /Odtp
;	COMDAT ?allocate@?$allocator@D@std@@QAEPADI@Z
_TEXT	SEGMENT
_this$ = -4						; size = 4
__Count$ = 8						; size = 4
?allocate@?$allocator@D@std@@QAEPADI@Z PROC		; std::allocator<char>::allocate, COMDAT
; _this$ = ecx
; File C:\Program Files\Microsoft Visual Studio\2022\Preview\VC\Tools\MSVC\14.30.30423\include\xmemory
; Line 838
	push	ebp
	mov	ebp, esp
	push	ecx
	mov	DWORD PTR _this$[ebp], ecx
; Line 839
	mov	eax, DWORD PTR __Count$[ebp]
	push	eax
	call	??$_Get_size_of_n@$00@std@@YAII@Z	; std::_Get_size_of_n<1>
	add	esp, 4
	push	eax
	call	??$_Allocate@$07U_Default_allocate_traits@std@@$0A@@std@@YAPAXI@Z ; std::_Allocate<8,std::_Default_allocate_traits,0>
	add	esp, 4
; Line 840
	mov	esp, ebp
	pop	ebp
	ret	4
?allocate@?$allocator@D@std@@QAEPADI@Z ENDP		; std::allocator<char>::allocate
_TEXT	ENDS
; Function compile flags: /Odtp
;	COMDAT ?deallocate@?$allocator@D@std@@QAEXQADI@Z
_TEXT	SEGMENT
_this$ = -4						; size = 4
__Ptr$ = 8						; size = 4
__Count$ = 12						; size = 4
?deallocate@?$allocator@D@std@@QAEXQADI@Z PROC		; std::allocator<char>::deallocate, COMDAT
; _this$ = ecx
; File C:\Program Files\Microsoft Visual Studio\2022\Preview\VC\Tools\MSVC\14.30.30423\include\xmemory
; Line 833
	push	ebp
	mov	ebp, esp
	push	ecx
	mov	DWORD PTR _this$[ebp], ecx
; Line 835
	mov	eax, DWORD PTR __Count$[ebp]
	push	eax
	mov	ecx, DWORD PTR __Ptr$[ebp]
	push	ecx
	call	??$_Deallocate@$07$0A@@std@@YAXPAXI@Z	; std::_Deallocate<8,0>
	add	esp, 8
; Line 836
	mov	esp, ebp
	pop	ebp
	ret	8
?deallocate@?$allocator@D@std@@QAEXQADI@Z ENDP		; std::allocator<char>::deallocate
_TEXT	ENDS
; Function compile flags: /Odtp
;	COMDAT ??0?$allocator@D@std@@QAE@XZ
_TEXT	SEGMENT
_this$ = -4						; size = 4
??0?$allocator@D@std@@QAE@XZ PROC			; std::allocator<char>::allocator<char>, COMDAT
; _this$ = ecx
; File C:\Program Files\Microsoft Visual Studio\2022\Preview\VC\Tools\MSVC\14.30.30423\include\xmemory
; Line 825
	push	ebp
	mov	ebp, esp
	push	ecx
	mov	DWORD PTR _this$[ebp], ecx
	mov	eax, DWORD PTR _this$[ebp]
	mov	esp, ebp
	pop	ebp
	ret	0
??0?$allocator@D@std@@QAE@XZ ENDP			; std::allocator<char>::allocator<char>
_TEXT	ENDS
; Function compile flags: /Odtp
;	COMDAT ?_Xlen_string@std@@YAXXZ
_TEXT	SEGMENT
?_Xlen_string@std@@YAXXZ PROC				; std::_Xlen_string, COMDAT
; File C:\Program Files\Microsoft Visual Studio\2022\Preview\VC\Tools\MSVC\14.30.30423\include\xstring
; Line 2415
	push	ebp
	mov	ebp, esp
; Line 2416
	push	OFFSET ??_C@_0BA@JFNIOLAK@string?5too?5long@
	call	?_Xlength_error@std@@YAXPBD@Z		; std::_Xlength_error
$LN2@Xlen_strin:
; Line 2417
	pop	ebp
	ret	0
?_Xlen_string@std@@YAXXZ ENDP				; std::_Xlen_string
_TEXT	ENDS
; Function compile flags: /Odtp
;	COMDAT ?assign@?$_Narrow_char_traits@DH@std@@SAXAADABD@Z
_TEXT	SEGMENT
__Left$ = 8						; size = 4
__Right$ = 12						; size = 4
?assign@?$_Narrow_char_traits@DH@std@@SAXAADABD@Z PROC	; std::_Narrow_char_traits<char,int>::assign, COMDAT
; File C:\Program Files\Microsoft Visual Studio\2022\Preview\VC\Tools\MSVC\14.30.30423\include\xstring
; Line 449
	push	ebp
	mov	ebp, esp
; Line 450
	mov	eax, DWORD PTR __Left$[ebp]
	mov	ecx, DWORD PTR __Right$[ebp]
	mov	dl, BYTE PTR [ecx]
	mov	BYTE PTR [eax], dl
; Line 451
	pop	ebp
	ret	0
?assign@?$_Narrow_char_traits@DH@std@@SAXAADABD@Z ENDP	; std::_Narrow_char_traits<char,int>::assign
_TEXT	ENDS
; Function compile flags: /Odtp
;	COMDAT ?length@?$_Narrow_char_traits@DH@std@@SAIQBD@Z
_TEXT	SEGMENT
__First$ = 8						; size = 4
?length@?$_Narrow_char_traits@DH@std@@SAIQBD@Z PROC	; std::_Narrow_char_traits<char,int>::length, COMDAT
; File C:\Program Files\Microsoft Visual Studio\2022\Preview\VC\Tools\MSVC\14.30.30423\include\xstring
; Line 396
	push	ebp
	mov	ebp, esp
; Line 412
	mov	eax, DWORD PTR __First$[ebp]
	push	eax
	call	_strlen
	add	esp, 4
; Line 414
	pop	ebp
	ret	0
?length@?$_Narrow_char_traits@DH@std@@SAIQBD@Z ENDP	; std::_Narrow_char_traits<char,int>::length
_TEXT	ENDS
; Function compile flags: /Odtp
;	COMDAT ?move@?$_Char_traits@DH@std@@SAPADQADQBDI@Z
_TEXT	SEGMENT
__First1$ = 8						; size = 4
__First2$ = 12						; size = 4
__Count$ = 16						; size = 4
?move@?$_Char_traits@DH@std@@SAPADQADQBDI@Z PROC	; std::_Char_traits<char,int>::move, COMDAT
; File C:\Program Files\Microsoft Visual Studio\2022\Preview\VC\Tools\MSVC\14.30.30423\include\xstring
; Line 80
	push	ebp
	mov	ebp, esp
; Line 122
	mov	eax, DWORD PTR __Count$[ebp]
	push	eax
	mov	ecx, DWORD PTR __First2$[ebp]
	push	ecx
	mov	edx, DWORD PTR __First1$[ebp]
	push	edx
	call	_memmove
	add	esp, 12					; 0000000cH
; Line 125
	mov	eax, DWORD PTR __First1$[ebp]
; Line 126
	pop	ebp
	ret	0
?move@?$_Char_traits@DH@std@@SAPADQADQBDI@Z ENDP	; std::_Char_traits<char,int>::move
_TEXT	ENDS
; Function compile flags: /Odtp
;	COMDAT ?copy@?$_Char_traits@DH@std@@SAPADQADQBDI@Z
_TEXT	SEGMENT
__First1$ = 8						; size = 4
__First2$ = 12						; size = 4
__Count$ = 16						; size = 4
?copy@?$_Char_traits@DH@std@@SAPADQADQBDI@Z PROC	; std::_Char_traits<char,int>::copy, COMDAT
; File C:\Program Files\Microsoft Visual Studio\2022\Preview\VC\Tools\MSVC\14.30.30423\include\xstring
; Line 49
	push	ebp
	mov	ebp, esp
; Line 65
	mov	eax, DWORD PTR __Count$[ebp]
	push	eax
	mov	ecx, DWORD PTR __First2$[ebp]
	push	ecx
	mov	edx, DWORD PTR __First1$[ebp]
	push	edx
	call	_memcpy
	add	esp, 12					; 0000000cH
; Line 68
	mov	eax, DWORD PTR __First1$[ebp]
; Line 69
	pop	ebp
	ret	0
?copy@?$_Char_traits@DH@std@@SAPADQADQBDI@Z ENDP	; std::_Char_traits<char,int>::copy
_TEXT	ENDS
; Function compile flags: /Odtp
;	COMDAT ?_Release@_Fake_proxy_ptr_impl@std@@QAEXXZ
_TEXT	SEGMENT
_this$ = -4						; size = 4
?_Release@_Fake_proxy_ptr_impl@std@@QAEXXZ PROC		; std::_Fake_proxy_ptr_impl::_Release, COMDAT
; _this$ = ecx
; File C:\Program Files\Microsoft Visual Studio\2022\Preview\VC\Tools\MSVC\14.30.30423\include\xmemory
; Line 1291
	push	ebp
	mov	ebp, esp
	push	ecx
	mov	DWORD PTR _this$[ebp], ecx
	mov	esp, ebp
	pop	ebp
	ret	0
?_Release@_Fake_proxy_ptr_impl@std@@QAEXXZ ENDP		; std::_Fake_proxy_ptr_impl::_Release
_TEXT	ENDS
; Function compile flags: /Odtp
;	COMDAT ??0_Fake_proxy_ptr_impl@std@@QAE@ABU_Fake_allocator@1@ABU_Container_base0@1@@Z
_TEXT	SEGMENT
_this$ = -4						; size = 4
___formal$ = 8						; size = 4
___formal$ = 12						; size = 4
??0_Fake_proxy_ptr_impl@std@@QAE@ABU_Fake_allocator@1@ABU_Container_base0@1@@Z PROC ; std::_Fake_proxy_ptr_impl::_Fake_proxy_ptr_impl, COMDAT
; _this$ = ecx
; File C:\Program Files\Microsoft Visual Studio\2022\Preview\VC\Tools\MSVC\14.30.30423\include\xmemory
; Line 1288
	push	ebp
	mov	ebp, esp
	push	ecx
	mov	DWORD PTR _this$[ebp], ecx
	mov	eax, DWORD PTR _this$[ebp]
	mov	esp, ebp
	pop	ebp
	ret	8
??0_Fake_proxy_ptr_impl@std@@QAE@ABU_Fake_allocator@1@ABU_Container_base0@1@@Z ENDP ; std::_Fake_proxy_ptr_impl::_Fake_proxy_ptr_impl
_TEXT	ENDS
; Function compile flags: /Odtp
;	COMDAT ?_Alloc_proxy@_Container_base0@std@@QAEXABU_Fake_allocator@2@@Z
_TEXT	SEGMENT
_this$ = -4						; size = 4
___formal$ = 8						; size = 4
?_Alloc_proxy@_Container_base0@std@@QAEXABU_Fake_allocator@2@@Z PROC ; std::_Container_base0::_Alloc_proxy, COMDAT
; _this$ = ecx
; File C:\Program Files\Microsoft Visual Studio\2022\Preview\VC\Tools\MSVC\14.30.30423\include\xmemory
; Line 1039
	push	ebp
	mov	ebp, esp
	push	ecx
	mov	DWORD PTR _this$[ebp], ecx
	mov	esp, ebp
	pop	ebp
	ret	4
?_Alloc_proxy@_Container_base0@std@@QAEXABU_Fake_allocator@2@@Z ENDP ; std::_Container_base0::_Alloc_proxy
_TEXT	ENDS
; Function compile flags: /Odtp
;	COMDAT ?_Swap_proxy_and_iterators@_Container_base0@std@@QAEXAAU12@@Z
_TEXT	SEGMENT
_this$ = -4						; size = 4
___formal$ = 8						; size = 4
?_Swap_proxy_and_iterators@_Container_base0@std@@QAEXAAU12@@Z PROC ; std::_Container_base0::_Swap_proxy_and_iterators, COMDAT
; _this$ = ecx
; File C:\Program Files\Microsoft Visual Studio\2022\Preview\VC\Tools\MSVC\14.30.30423\include\xmemory
; Line 1038
	push	ebp
	mov	ebp, esp
	push	ecx
	mov	DWORD PTR _this$[ebp], ecx
	mov	esp, ebp
	pop	ebp
	ret	4
?_Swap_proxy_and_iterators@_Container_base0@std@@QAEXAAU12@@Z ENDP ; std::_Container_base0::_Swap_proxy_and_iterators
_TEXT	ENDS
; Function compile flags: /Odtp
;	COMDAT ?_Orphan_all@_Container_base0@std@@QAEXXZ
_TEXT	SEGMENT
_this$ = -4						; size = 4
?_Orphan_all@_Container_base0@std@@QAEXXZ PROC		; std::_Container_base0::_Orphan_all, COMDAT
; _this$ = ecx
; File C:\Program Files\Microsoft Visual Studio\2022\Preview\VC\Tools\MSVC\14.30.30423\include\xmemory
; Line 1037
	push	ebp
	mov	ebp, esp
	push	ecx
	mov	DWORD PTR _this$[ebp], ecx
	mov	esp, ebp
	pop	ebp
	ret	0
?_Orphan_all@_Container_base0@std@@QAEXXZ ENDP		; std::_Container_base0::_Orphan_all
_TEXT	ENDS
; Function compile flags: /Odtp
;	COMDAT ??$_Convert_size@I@std@@YAII@Z
_TEXT	SEGMENT
__Len$ = 8						; size = 4
??$_Convert_size@I@std@@YAII@Z PROC			; std::_Convert_size<unsigned int>, COMDAT
; File C:\Program Files\Microsoft Visual Studio\2022\Preview\VC\Tools\MSVC\14.30.30423\include\xmemory
; Line 978
	push	ebp
	mov	ebp, esp
; Line 980
	mov	eax, DWORD PTR __Len$[ebp]
; Line 981
	pop	ebp
	ret	0
??$_Convert_size@I@std@@YAII@Z ENDP			; std::_Convert_size<unsigned int>
_TEXT	ENDS
; Function compile flags: /Odtp
;	COMDAT ?_Adjust_manually_vector_aligned@std@@YAXAAPAXAAI@Z
_TEXT	SEGMENT
__Min_back_shift$ = -16					; size = 4
__Ptr_user$ = -12					; size = 4
__Ptr_container$ = -8					; size = 4
__Back_shift$ = -4					; size = 4
__Ptr$ = 8						; size = 4
__Bytes$ = 12						; size = 4
?_Adjust_manually_vector_aligned@std@@YAXAAPAXAAI@Z PROC ; std::_Adjust_manually_vector_aligned, COMDAT
; File C:\Program Files\Microsoft Visual Studio\2022\Preview\VC\Tools\MSVC\14.30.30423\include\xmemory
; Line 153
	push	ebp
	mov	ebp, esp
	sub	esp, 16					; 00000010H
; Line 155
	mov	eax, DWORD PTR __Bytes$[ebp]
	mov	ecx, DWORD PTR [eax]
	add	ecx, 35					; 00000023H
	mov	edx, DWORD PTR __Bytes$[ebp]
	mov	DWORD PTR [edx], ecx
; Line 157
	mov	eax, DWORD PTR __Ptr$[ebp]
	mov	ecx, DWORD PTR [eax]
	mov	DWORD PTR __Ptr_user$[ebp], ecx
; Line 158
	mov	edx, 4
	imul	eax, edx, -1
	mov	ecx, DWORD PTR __Ptr_user$[ebp]
	mov	edx, DWORD PTR [ecx+eax]
	mov	DWORD PTR __Ptr_container$[ebp], edx
; Line 169
	mov	DWORD PTR __Min_back_shift$[ebp], 4
; Line 171
	mov	eax, DWORD PTR __Ptr$[ebp]
	mov	ecx, DWORD PTR [eax]
	sub	ecx, DWORD PTR __Ptr_container$[ebp]
	mov	DWORD PTR __Back_shift$[ebp], ecx
$LN4@Adjust_man:
; Line 172
	cmp	DWORD PTR __Back_shift$[ebp], 4
	jb	SHORT $LN7@Adjust_man
	cmp	DWORD PTR __Back_shift$[ebp], 35	; 00000023H
	ja	SHORT $LN7@Adjust_man
	jmp	SHORT $LN2@Adjust_man
$LN7@Adjust_man:
	call	__invalid_parameter_noinfo_noreturn
	xor	edx, edx
	jne	SHORT $LN7@Adjust_man
$LN2@Adjust_man:
	xor	eax, eax
	jne	SHORT $LN4@Adjust_man
; Line 173
	mov	ecx, DWORD PTR __Ptr$[ebp]
	mov	edx, DWORD PTR __Ptr_container$[ebp]
	mov	DWORD PTR [ecx], edx
$LN10@Adjust_man:
; Line 174
	mov	esp, ebp
	pop	ebp
	ret	0
?_Adjust_manually_vector_aligned@std@@YAXAAPAXAAI@Z ENDP ; std::_Adjust_manually_vector_aligned
_TEXT	ENDS
; Function compile flags: /Odtp
;	COMDAT ?_Allocate@_Default_allocate_traits@std@@SAPAXI@Z
_TEXT	SEGMENT
__Bytes$ = 8						; size = 4
?_Allocate@_Default_allocate_traits@std@@SAPAXI@Z PROC	; std::_Default_allocate_traits::_Allocate, COMDAT
; File C:\Program Files\Microsoft Visual Studio\2022\Preview\VC\Tools\MSVC\14.30.30423\include\xmemory
; Line 84
	push	ebp
	mov	ebp, esp
; Line 85
	mov	eax, DWORD PTR __Bytes$[ebp]
	push	eax
	call	??2@YAPAXI@Z				; operator new
	add	esp, 4
; Line 86
	pop	ebp
	ret	0
?_Allocate@_Default_allocate_traits@std@@SAPAXI@Z ENDP	; std::_Default_allocate_traits::_Allocate
_TEXT	ENDS
; Function compile flags: /Odtp
;	COMDAT ?max@?$numeric_limits@H@std@@SAHXZ
_TEXT	SEGMENT
?max@?$numeric_limits@H@std@@SAHXZ PROC			; std::numeric_limits<int>::max, COMDAT
; File C:\Program Files\Microsoft Visual Studio\2022\Preview\VC\Tools\MSVC\14.30.30423\include\limits
; Line 556
	push	ebp
	mov	ebp, esp
; Line 557
	mov	eax, 2147483647				; 7fffffffH
; Line 558
	pop	ebp
	ret	0
?max@?$numeric_limits@H@std@@SAHXZ ENDP			; std::numeric_limits<int>::max
_TEXT	ENDS
; Function compile flags: /Odtp
;	COMDAT ?_Throw_bad_array_new_length@std@@YAXXZ
_TEXT	SEGMENT
$T1 = -12						; size = 12
?_Throw_bad_array_new_length@std@@YAXXZ PROC		; std::_Throw_bad_array_new_length, COMDAT
; File C:\Program Files\Microsoft Visual Studio\2022\Preview\VC\Tools\MSVC\14.30.30423\include\exception
; Line 320
	push	ebp
	mov	ebp, esp
	sub	esp, 12					; 0000000cH
; Line 321
	lea	ecx, DWORD PTR $T1[ebp]
	call	??0bad_array_new_length@std@@QAE@XZ	; std::bad_array_new_length::bad_array_new_length
	push	OFFSET __TI3?AVbad_array_new_length@std@@
	lea	eax, DWORD PTR $T1[ebp]
	push	eax
	call	__CxxThrowException@8
$LN2@Throw_bad_:
; Line 322
	mov	esp, ebp
	pop	ebp
	ret	0
?_Throw_bad_array_new_length@std@@YAXXZ ENDP		; std::_Throw_bad_array_new_length
_TEXT	ENDS
; Function compile flags: /Odtp
;	COMDAT ??_Gbad_array_new_length@std@@UAEPAXI@Z
_TEXT	SEGMENT
_this$ = -4						; size = 4
___flags$ = 8						; size = 4
??_Gbad_array_new_length@std@@UAEPAXI@Z PROC		; std::bad_array_new_length::`scalar deleting destructor', COMDAT
; _this$ = ecx
	push	ebp
	mov	ebp, esp
	push	ecx
	mov	DWORD PTR _this$[ebp], ecx
	mov	ecx, DWORD PTR _this$[ebp]
	call	??1bad_array_new_length@std@@UAE@XZ
	mov	eax, DWORD PTR ___flags$[ebp]
	and	eax, 1
	je	SHORT $LN2@scalar
	push	12					; 0000000cH
	mov	ecx, DWORD PTR _this$[ebp]
	push	ecx
	call	??3@YAXPAXI@Z				; operator delete
	add	esp, 8
$LN2@scalar:
	mov	eax, DWORD PTR _this$[ebp]
	mov	esp, ebp
	pop	ebp
	ret	4
??_Gbad_array_new_length@std@@UAEPAXI@Z ENDP		; std::bad_array_new_length::`scalar deleting destructor'
_TEXT	ENDS
; Function compile flags: /Odtp
;	COMDAT ??0bad_array_new_length@std@@QAE@ABV01@@Z
_TEXT	SEGMENT
_this$ = -4						; size = 4
___that$ = 8						; size = 4
??0bad_array_new_length@std@@QAE@ABV01@@Z PROC		; std::bad_array_new_length::bad_array_new_length, COMDAT
; _this$ = ecx
	push	ebp
	mov	ebp, esp
	push	ecx
	mov	DWORD PTR _this$[ebp], ecx
	mov	eax, DWORD PTR ___that$[ebp]
	push	eax
	mov	ecx, DWORD PTR _this$[ebp]
	call	??0bad_alloc@std@@QAE@ABV01@@Z
	mov	ecx, DWORD PTR _this$[ebp]
	mov	DWORD PTR [ecx], OFFSET ??_7bad_array_new_length@std@@6B@
	mov	eax, DWORD PTR _this$[ebp]
	mov	esp, ebp
	pop	ebp
	ret	4
??0bad_array_new_length@std@@QAE@ABV01@@Z ENDP		; std::bad_array_new_length::bad_array_new_length
_TEXT	ENDS
; Function compile flags: /Odtp
;	COMDAT ??1bad_array_new_length@std@@UAE@XZ
_TEXT	SEGMENT
_this$ = -4						; size = 4
??1bad_array_new_length@std@@UAE@XZ PROC		; std::bad_array_new_length::~bad_array_new_length, COMDAT
; _this$ = ecx
	push	ebp
	mov	ebp, esp
	push	ecx
	mov	DWORD PTR _this$[ebp], ecx
	mov	ecx, DWORD PTR _this$[ebp]
	call	??1bad_alloc@std@@UAE@XZ
	mov	esp, ebp
	pop	ebp
	ret	0
??1bad_array_new_length@std@@UAE@XZ ENDP		; std::bad_array_new_length::~bad_array_new_length
_TEXT	ENDS
; Function compile flags: /Odtp
;	COMDAT ??0bad_array_new_length@std@@QAE@XZ
_TEXT	SEGMENT
_this$ = -4						; size = 4
??0bad_array_new_length@std@@QAE@XZ PROC		; std::bad_array_new_length::bad_array_new_length, COMDAT
; _this$ = ecx
; File C:\Program Files\Microsoft Visual Studio\2022\Preview\VC\Tools\MSVC\14.30.30423\include\vcruntime_exception.h
; Line 141
	push	ebp
	mov	ebp, esp
	push	ecx
	mov	DWORD PTR _this$[ebp], ecx
; Line 140
	push	OFFSET ??_C@_0BF@KINCDENJ@bad?5array?5new?5length@
	mov	ecx, DWORD PTR _this$[ebp]
	call	??0bad_alloc@std@@AAE@QBD@Z		; std::bad_alloc::bad_alloc
; Line 141
	mov	eax, DWORD PTR _this$[ebp]
	mov	DWORD PTR [eax], OFFSET ??_7bad_array_new_length@std@@6B@
; Line 142
	mov	eax, DWORD PTR _this$[ebp]
	mov	esp, ebp
	pop	ebp
	ret	0
??0bad_array_new_length@std@@QAE@XZ ENDP		; std::bad_array_new_length::bad_array_new_length
_TEXT	ENDS
; Function compile flags: /Odtp
;	COMDAT ??_Gbad_alloc@std@@UAEPAXI@Z
_TEXT	SEGMENT
_this$ = -4						; size = 4
___flags$ = 8						; size = 4
??_Gbad_alloc@std@@UAEPAXI@Z PROC			; std::bad_alloc::`scalar deleting destructor', COMDAT
; _this$ = ecx
	push	ebp
	mov	ebp, esp
	push	ecx
	mov	DWORD PTR _this$[ebp], ecx
	mov	ecx, DWORD PTR _this$[ebp]
	call	??1bad_alloc@std@@UAE@XZ
	mov	eax, DWORD PTR ___flags$[ebp]
	and	eax, 1
	je	SHORT $LN2@scalar
	push	12					; 0000000cH
	mov	ecx, DWORD PTR _this$[ebp]
	push	ecx
	call	??3@YAXPAXI@Z				; operator delete
	add	esp, 8
$LN2@scalar:
	mov	eax, DWORD PTR _this$[ebp]
	mov	esp, ebp
	pop	ebp
	ret	4
??_Gbad_alloc@std@@UAEPAXI@Z ENDP			; std::bad_alloc::`scalar deleting destructor'
_TEXT	ENDS
; Function compile flags: /Odtp
;	COMDAT ??0bad_alloc@std@@QAE@ABV01@@Z
_TEXT	SEGMENT
_this$ = -4						; size = 4
___that$ = 8						; size = 4
??0bad_alloc@std@@QAE@ABV01@@Z PROC			; std::bad_alloc::bad_alloc, COMDAT
; _this$ = ecx
	push	ebp
	mov	ebp, esp
	push	ecx
	mov	DWORD PTR _this$[ebp], ecx
	mov	eax, DWORD PTR ___that$[ebp]
	push	eax
	mov	ecx, DWORD PTR _this$[ebp]
	call	??0exception@std@@QAE@ABV01@@Z		; std::exception::exception
	mov	ecx, DWORD PTR _this$[ebp]
	mov	DWORD PTR [ecx], OFFSET ??_7bad_alloc@std@@6B@
	mov	eax, DWORD PTR _this$[ebp]
	mov	esp, ebp
	pop	ebp
	ret	4
??0bad_alloc@std@@QAE@ABV01@@Z ENDP			; std::bad_alloc::bad_alloc
_TEXT	ENDS
; Function compile flags: /Odtp
;	COMDAT ??1bad_alloc@std@@UAE@XZ
_TEXT	SEGMENT
_this$ = -4						; size = 4
??1bad_alloc@std@@UAE@XZ PROC				; std::bad_alloc::~bad_alloc, COMDAT
; _this$ = ecx
	push	ebp
	mov	ebp, esp
	push	ecx
	mov	DWORD PTR _this$[ebp], ecx
	mov	ecx, DWORD PTR _this$[ebp]
	call	??1exception@std@@UAE@XZ		; std::exception::~exception
	mov	esp, ebp
	pop	ebp
	ret	0
??1bad_alloc@std@@UAE@XZ ENDP				; std::bad_alloc::~bad_alloc
_TEXT	ENDS
; Function compile flags: /Odtp
;	COMDAT ??0bad_alloc@std@@AAE@QBD@Z
_TEXT	SEGMENT
_this$ = -4						; size = 4
__Message$ = 8						; size = 4
??0bad_alloc@std@@AAE@QBD@Z PROC			; std::bad_alloc::bad_alloc, COMDAT
; _this$ = ecx
; File C:\Program Files\Microsoft Visual Studio\2022\Preview\VC\Tools\MSVC\14.30.30423\include\vcruntime_exception.h
; Line 130
	push	ebp
	mov	ebp, esp
	push	ecx
	mov	DWORD PTR _this$[ebp], ecx
; Line 129
	push	1
	mov	eax, DWORD PTR __Message$[ebp]
	push	eax
	mov	ecx, DWORD PTR _this$[ebp]
	call	??0exception@std@@QAE@QBDH@Z		; std::exception::exception
; Line 130
	mov	ecx, DWORD PTR _this$[ebp]
	mov	DWORD PTR [ecx], OFFSET ??_7bad_alloc@std@@6B@
; Line 131
	mov	eax, DWORD PTR _this$[ebp]
	mov	esp, ebp
	pop	ebp
	ret	4
??0bad_alloc@std@@AAE@QBD@Z ENDP			; std::bad_alloc::bad_alloc
_TEXT	ENDS
; Function compile flags: /Odtp
;	COMDAT ??_Gexception@std@@UAEPAXI@Z
_TEXT	SEGMENT
_this$ = -4						; size = 4
___flags$ = 8						; size = 4
??_Gexception@std@@UAEPAXI@Z PROC			; std::exception::`scalar deleting destructor', COMDAT
; _this$ = ecx
	push	ebp
	mov	ebp, esp
	push	ecx
	mov	DWORD PTR _this$[ebp], ecx
	mov	ecx, DWORD PTR _this$[ebp]
	call	??1exception@std@@UAE@XZ		; std::exception::~exception
	mov	eax, DWORD PTR ___flags$[ebp]
	and	eax, 1
	je	SHORT $LN2@scalar
	push	12					; 0000000cH
	mov	ecx, DWORD PTR _this$[ebp]
	push	ecx
	call	??3@YAXPAXI@Z				; operator delete
	add	esp, 8
$LN2@scalar:
	mov	eax, DWORD PTR _this$[ebp]
	mov	esp, ebp
	pop	ebp
	ret	4
??_Gexception@std@@UAEPAXI@Z ENDP			; std::exception::`scalar deleting destructor'
_TEXT	ENDS
; Function compile flags: /Odtp
;	COMDAT ?what@exception@std@@UBEPBDXZ
_TEXT	SEGMENT
tv69 = -8						; size = 4
_this$ = -4						; size = 4
?what@exception@std@@UBEPBDXZ PROC			; std::exception::what, COMDAT
; _this$ = ecx
; File C:\Program Files\Microsoft Visual Studio\2022\Preview\VC\Tools\MSVC\14.30.30423\include\vcruntime_exception.h
; Line 94
	push	ebp
	mov	ebp, esp
	sub	esp, 8
	mov	DWORD PTR _this$[ebp], ecx
; Line 95
	mov	eax, DWORD PTR _this$[ebp]
	cmp	DWORD PTR [eax+4], 0
	je	SHORT $LN3@what
	mov	ecx, DWORD PTR _this$[ebp]
	mov	edx, DWORD PTR [ecx+4]
	mov	DWORD PTR tv69[ebp], edx
	jmp	SHORT $LN4@what
$LN3@what:
	mov	DWORD PTR tv69[ebp], OFFSET ??_C@_0BC@EOODALEL@Unknown?5exception@
$LN4@what:
	mov	eax, DWORD PTR tv69[ebp]
; Line 96
	mov	esp, ebp
	pop	ebp
	ret	0
?what@exception@std@@UBEPBDXZ ENDP			; std::exception::what
_TEXT	ENDS
; Function compile flags: /Odtp
;	COMDAT ??1exception@std@@UAE@XZ
_TEXT	SEGMENT
_this$ = -4						; size = 4
??1exception@std@@UAE@XZ PROC				; std::exception::~exception, COMDAT
; _this$ = ecx
; File C:\Program Files\Microsoft Visual Studio\2022\Preview\VC\Tools\MSVC\14.30.30423\include\vcruntime_exception.h
; Line 89
	push	ebp
	mov	ebp, esp
	push	ecx
	mov	DWORD PTR _this$[ebp], ecx
	mov	eax, DWORD PTR _this$[ebp]
	mov	DWORD PTR [eax], OFFSET ??_7exception@std@@6B@
; Line 90
	mov	ecx, DWORD PTR _this$[ebp]
	add	ecx, 4
	push	ecx
	call	___std_exception_destroy
	add	esp, 4
; Line 91
	mov	esp, ebp
	pop	ebp
	ret	0
??1exception@std@@UAE@XZ ENDP				; std::exception::~exception
_TEXT	ENDS
; Function compile flags: /Odtp
;	COMDAT ??0exception@std@@QAE@ABV01@@Z
_TEXT	SEGMENT
_this$ = -4						; size = 4
__Other$ = 8						; size = 4
??0exception@std@@QAE@ABV01@@Z PROC			; std::exception::exception, COMDAT
; _this$ = ecx
; File C:\Program Files\Microsoft Visual Studio\2022\Preview\VC\Tools\MSVC\14.30.30423\include\vcruntime_exception.h
; Line 72
	push	ebp
	mov	ebp, esp
	push	ecx
	mov	DWORD PTR _this$[ebp], ecx
	mov	eax, DWORD PTR _this$[ebp]
	mov	DWORD PTR [eax], OFFSET ??_7exception@std@@6B@
; Line 71
	xor	ecx, ecx
	mov	edx, DWORD PTR _this$[ebp]
	add	edx, 4
	mov	DWORD PTR [edx], ecx
	mov	DWORD PTR [edx+4], ecx
; Line 73
	mov	eax, DWORD PTR _this$[ebp]
	add	eax, 4
	push	eax
	mov	ecx, DWORD PTR __Other$[ebp]
	add	ecx, 4
	push	ecx
	call	___std_exception_copy
	add	esp, 8
; Line 74
	mov	eax, DWORD PTR _this$[ebp]
	mov	esp, ebp
	pop	ebp
	ret	4
??0exception@std@@QAE@ABV01@@Z ENDP			; std::exception::exception
_TEXT	ENDS
; Function compile flags: /Odtp
;	COMDAT ??0exception@std@@QAE@QBDH@Z
_TEXT	SEGMENT
_this$ = -4						; size = 4
__Message$ = 8						; size = 4
___formal$ = 12						; size = 4
??0exception@std@@QAE@QBDH@Z PROC			; std::exception::exception, COMDAT
; _this$ = ecx
; File C:\Program Files\Microsoft Visual Studio\2022\Preview\VC\Tools\MSVC\14.30.30423\include\vcruntime_exception.h
; Line 66
	push	ebp
	mov	ebp, esp
	push	ecx
	mov	DWORD PTR _this$[ebp], ecx
	mov	eax, DWORD PTR _this$[ebp]
	mov	DWORD PTR [eax], OFFSET ??_7exception@std@@6B@
; Line 65
	xor	ecx, ecx
	mov	edx, DWORD PTR _this$[ebp]
	add	edx, 4
	mov	DWORD PTR [edx], ecx
	mov	DWORD PTR [edx+4], ecx
; Line 67
	mov	eax, DWORD PTR _this$[ebp]
	mov	ecx, DWORD PTR __Message$[ebp]
	mov	DWORD PTR [eax+4], ecx
; Line 68
	mov	eax, DWORD PTR _this$[ebp]
	mov	esp, ebp
	pop	ebp
	ret	8
??0exception@std@@QAE@QBDH@Z ENDP			; std::exception::exception
_TEXT	ENDS
; Function compile flags: /Odtp
;	COMDAT _printf
_TEXT	SEGMENT
__Result$ = -8						; size = 4
__ArgList$ = -4						; size = 4
__Format$ = 8						; size = 4
_printf	PROC						; COMDAT
; File C:\Program Files (x86)\Windows Kits\10\include\10.0.20348.0\ucrt\stdio.h
; Line 956
	push	ebp
	mov	ebp, esp
	sub	esp, 8
; Line 959
	lea	eax, DWORD PTR __Format$[ebp+4]
	mov	DWORD PTR __ArgList$[ebp], eax
; Line 960
	mov	ecx, DWORD PTR __ArgList$[ebp]
	push	ecx
	push	0
	mov	edx, DWORD PTR __Format$[ebp]
	push	edx
	push	1
	call	___acrt_iob_func
	add	esp, 4
	push	eax
	call	__vfprintf_l
	add	esp, 16					; 00000010H
	mov	DWORD PTR __Result$[ebp], eax
; Line 961
	mov	DWORD PTR __ArgList$[ebp], 0
; Line 962
	mov	eax, DWORD PTR __Result$[ebp]
; Line 963
	mov	esp, ebp
	pop	ebp
	ret	0
_printf	ENDP
_TEXT	ENDS
; Function compile flags: /Odtp
;	COMDAT __vfprintf_l
_TEXT	SEGMENT
__Stream$ = 8						; size = 4
__Format$ = 12						; size = 4
__Locale$ = 16						; size = 4
__ArgList$ = 20						; size = 4
__vfprintf_l PROC					; COMDAT
; File C:\Program Files (x86)\Windows Kits\10\include\10.0.20348.0\ucrt\stdio.h
; Line 644
	push	ebp
	mov	ebp, esp
; Line 645
	mov	eax, DWORD PTR __ArgList$[ebp]
	push	eax
	mov	ecx, DWORD PTR __Locale$[ebp]
	push	ecx
	mov	edx, DWORD PTR __Format$[ebp]
	push	edx
	mov	eax, DWORD PTR __Stream$[ebp]
	push	eax
	call	___local_stdio_printf_options
	mov	ecx, DWORD PTR [eax+4]
	push	ecx
	mov	edx, DWORD PTR [eax]
	push	edx
	call	___stdio_common_vfprintf
	add	esp, 24					; 00000018H
; Line 646
	pop	ebp
	ret	0
__vfprintf_l ENDP
_TEXT	ENDS
; Function compile flags: /Odtp
;	COMDAT ___local_stdio_printf_options
_TEXT	SEGMENT
___local_stdio_printf_options PROC			; COMDAT
; File C:\Program Files (x86)\Windows Kits\10\include\10.0.20348.0\ucrt\corecrt_stdio_config.h
; Line 90
	push	ebp
	mov	ebp, esp
; Line 92
	mov	eax, OFFSET ?_OptionsStorage@?1??__local_stdio_printf_options@@9@4_KA ; `__local_stdio_printf_options'::`2'::_OptionsStorage
; Line 93
	pop	ebp
	ret	0
___local_stdio_printf_options ENDP
_TEXT	ENDS
; Function compile flags: /Odtp
;	COMDAT ??2@YAPAXIPAX@Z
_TEXT	SEGMENT
__Size$ = 8						; size = 4
__Where$ = 12						; size = 4
??2@YAPAXIPAX@Z PROC					; operator new, COMDAT
; File C:\Program Files\Microsoft Visual Studio\2022\Preview\VC\Tools\MSVC\14.30.30423\include\vcruntime_new.h
; Line 167
	push	ebp
	mov	ebp, esp
; Line 169
	mov	eax, DWORD PTR __Where$[ebp]
; Line 170
	pop	ebp
	ret	0
??2@YAPAXIPAX@Z ENDP					; operator new
_TEXT	ENDS
END
